---
triple:          'arm64-apple-darwin'
binary-path:     '/Users/shamalshaikh/VScode/GFG/Graphs/BFS_DFS/DFS'
relocations:
  - { offsetInCU: 0x5C, offset: 0x5C, size: 0x8, addend: 0x0, symName: __ZNSt3__1L19piecewise_constructE, symObjAddr: 0x51E0, symBinAddr: 0x100007BBC, symSize: 0x0 }
  - { offsetInCU: 0x935F, offset: 0x935F, size: 0x8, addend: 0x0, symName: __ZNSt3__124__put_character_sequenceB7v160006IcNS_11char_traitsIcEEEERNS_13basic_ostreamIT_T0_EES7_PKS4_m, symObjAddr: 0x438C, symBinAddr: 0x100006B04, symSize: 0x1EC }
  - { offsetInCU: 0xACAF, offset: 0xACAF, size: 0x8, addend: 0x0, symName: __ZNSt3__1lsB7v160006INS_11char_traitsIcEEEERNS_13basic_ostreamIcT_EES6_PKc, symObjAddr: 0x32C, symBinAddr: 0x100002AA4, symSize: 0x48 }
  - { offsetInCU: 0xACF5, offset: 0xACF5, size: 0x8, addend: 0x0, symName: __ZNSt3__1neB7v160006ERKNS_15__list_iteratorIiPvEES4_, symObjAddr: 0x3A0, symBinAddr: 0x100002B18, symSize: 0x34 }
  - { offsetInCU: 0xAD65, offset: 0xAD65, size: 0x8, addend: 0x0, symName: __ZNSt3__118__debug_db_erase_cB7v160006INS_10__list_impIiNS_9allocatorIiEEEEEEvPT_, symObjAddr: 0x119C, symBinAddr: 0x100003914, symSize: 0x10 }
  - { offsetInCU: 0xAD96, offset: 0xAD96, size: 0x8, addend: 0x0, symName: __ZNSt3__125__debug_db_invalidate_allB7v160006INS_10__list_impIiNS_9allocatorIiEEEEEEvPT_, symObjAddr: 0x131C, symBinAddr: 0x100003A94, symSize: 0x10 }
  - { offsetInCU: 0xADFA, offset: 0xADFA, size: 0x8, addend: 0x0, symName: __ZNSt3__119__libcpp_deallocateB7v160006EPvmm, symObjAddr: 0x148C, symBinAddr: 0x100003C04, symSize: 0x30 }
  - { offsetInCU: 0xAE42, offset: 0xAE42, size: 0x8, addend: 0x0, symName: __ZNSt3__127__do_deallocate_handle_sizeB7v160006IJEEEvPvmDpT_, symObjAddr: 0x14BC, symBinAddr: 0x100003C34, symSize: 0x28 }
  - { offsetInCU: 0xAE80, offset: 0xAE80, size: 0x8, addend: 0x0, symName: __ZNSt3__124__libcpp_operator_deleteB7v160006IJPvEEEvDpT_, symObjAddr: 0x14E4, symBinAddr: 0x100003C5C, symSize: 0x24 }
  - { offsetInCU: 0xAEEC, offset: 0xAEEC, size: 0x8, addend: 0x0, symName: __ZNSt3__116forward_as_tupleB7v160006IJRKiEEENS_5tupleIJDpOT_EEES6_, symObjAddr: 0x1998, symBinAddr: 0x100004110, symSize: 0x2C }
  - { offsetInCU: 0xAF25, offset: 0xAF25, size: 0x8, addend: 0x0, symName: __ZNSt3__116forward_as_tupleB7v160006IJEEENS_5tupleIJDpOT_EEES4_, symObjAddr: 0x19C4, symBinAddr: 0x10000413C, symSize: 0x4 }
  - { offsetInCU: 0xAF67, offset: 0xAF67, size: 0x8, addend: 0x0, symName: __ZNSt3__117__libcpp_allocateB7v160006Emm, symObjAddr: 0x21C0, symBinAddr: 0x100004938, symSize: 0x28 }
  - { offsetInCU: 0xAFA4, offset: 0xAFA4, size: 0x8, addend: 0x0, symName: __ZNSt3__121__libcpp_operator_newB7v160006IJmEEEPvDpT_, symObjAddr: 0x21FC, symBinAddr: 0x100004974, symSize: 0x24 }
  - { offsetInCU: 0xAFE8, offset: 0xAFE8, size: 0x8, addend: 0x0, symName: __ZNSt3__13getB7v160006ILm0EJRKiEEERNS_13tuple_elementIXT_ENS_5tupleIJDpT0_EEEE4typeERS7_, symObjAddr: 0x247C, symBinAddr: 0x100004BF4, symSize: 0x24 }
  - { offsetInCU: 0xB02B, offset: 0xB02B, size: 0x8, addend: 0x0, symName: __ZNSt3__119__debug_db_insert_cB7v160006INS_4listIiNS_9allocatorIiEEEEEEvPT_, symObjAddr: 0x2570, symBinAddr: 0x100004CE8, symSize: 0x10 }
  - { offsetInCU: 0xB05C, offset: 0xB05C, size: 0x8, addend: 0x0, symName: __ZNSt3__127__tree_balance_after_insertB7v160006IPNS_16__tree_node_baseIPvEEEEvT_S5_, symObjAddr: 0x2754, symBinAddr: 0x100004ECC, symSize: 0x32C }
  - { offsetInCU: 0xB0D8, offset: 0xB0D8, size: 0x8, addend: 0x0, symName: __ZNSt3__120__tree_is_left_childB7v160006IPNS_16__tree_node_baseIPvEEEEbT_, symObjAddr: 0x2AC0, symBinAddr: 0x100005238, symSize: 0x2C }
  - { offsetInCU: 0xB10D, offset: 0xB10D, size: 0x8, addend: 0x0, symName: __ZNSt3__118__tree_left_rotateB7v160006IPNS_16__tree_node_baseIPvEEEEvT_, symObjAddr: 0x2AEC, symBinAddr: 0x100005264, symSize: 0xD8 }
  - { offsetInCU: 0xB14F, offset: 0xB14F, size: 0x8, addend: 0x0, symName: __ZNSt3__119__tree_right_rotateB7v160006IPNS_16__tree_node_baseIPvEEEEvT_, symObjAddr: 0x2BC4, symBinAddr: 0x10000533C, symSize: 0xCC }
  - { offsetInCU: 0xB257, offset: 0xB257, size: 0x8, addend: 0x0, symName: __ZNSt3__116__pad_and_outputB7v160006IcNS_11char_traitsIcEEEENS_19ostreambuf_iteratorIT_T0_EES6_PKS4_S8_S8_RNS_8ios_baseES4_, symObjAddr: 0x45C8, symBinAddr: 0x100006D40, symSize: 0x240 }
  - { offsetInCU: 0xB326, offset: 0xB326, size: 0x8, addend: 0x0, symName: __ZNSt3__119__debug_db_insert_cB7v160006INS_12basic_stringIcNS_11char_traitsIcEENS_9allocatorIcEEEEEEvPT_, symObjAddr: 0x4A7C, symBinAddr: 0x1000071F4, symSize: 0x10 }
  - { offsetInCU: 0xB357, offset: 0xB357, size: 0x8, addend: 0x0, symName: __ZNSt3__112__to_addressB7v160006IKcEEPT_S3_, symObjAddr: 0x4B48, symBinAddr: 0x1000072C0, symSize: 0x14 }
  - { offsetInCU: 0xB3BF, offset: 0xB3BF, size: 0x8, addend: 0x0, symName: __ZNSt3__19use_facetB7v160006INS_5ctypeIcEEEERKT_RKNS_6localeE, symObjAddr: 0x4DC8, symBinAddr: 0x100007540, symSize: 0x2C }
  - { offsetInCU: 0xB88E, offset: 0xB88E, size: 0x8, addend: 0x0, symName: __ZNSt3__118__constexpr_strlenB7v160006EPKc, symObjAddr: 0x4E60, symBinAddr: 0x1000075D8, symSize: 0x24 }
  - { offsetInCU: 0xB8BA, offset: 0xB8BA, size: 0x8, addend: 0x0, symName: __ZNSt3__1eqB7v160006ERKNS_15__list_iteratorIiPvEES4_, symObjAddr: 0x4F50, symBinAddr: 0x1000076C8, symSize: 0x30 }
  - { offsetInCU: 0xBA26, offset: 0xBA26, size: 0x8, addend: 0x0, symName: __ZSt28__throw_bad_array_new_lengthB7v160006v, symObjAddr: 0x218C, symBinAddr: 0x100004904, symSize: 0x34 }
  - { offsetInCU: 0xE8B9, offset: 0xE8B9, size: 0x8, addend: 0x0, symName: __ZN5Graph7addEdgeEii, symObjAddr: 0x0, symBinAddr: 0x100002778, symSize: 0x48 }
  - { offsetInCU: 0xE8FC, offset: 0xE8FC, size: 0x8, addend: 0x0, symName: __ZNSt3__13mapIiNS_4listIiNS_9allocatorIiEEEENS_4lessIiEENS2_INS_4pairIKiS4_EEEEEixERS8_, symObjAddr: 0x48, symBinAddr: 0x1000027C0, symSize: 0x80 }
  - { offsetInCU: 0xE933, offset: 0xE933, size: 0x8, addend: 0x0, symName: __ZNSt3__14listIiNS_9allocatorIiEEE9push_backERKi, symObjAddr: 0xC8, symBinAddr: 0x100002840, symSize: 0xF4 }
  - { offsetInCU: 0xE988, offset: 0xE988, size: 0x8, addend: 0x0, symName: __ZN5Graph3DFSEi, symObjAddr: 0x1BC, symBinAddr: 0x100002934, symSize: 0xF0 }
  - { offsetInCU: 0xE9DA, offset: 0xE9DA, size: 0x8, addend: 0x0, symName: __ZNSt3__13mapIibNS_4lessIiEENS_9allocatorINS_4pairIKibEEEEEixERS5_, symObjAddr: 0x2AC, symBinAddr: 0x100002A24, symSize: 0x80 }
  - { offsetInCU: 0xEA11, offset: 0xEA11, size: 0x8, addend: 0x0, symName: __ZNSt3__14listIiNS_9allocatorIiEEE5beginB7v160006Ev, symObjAddr: 0x374, symBinAddr: 0x100002AEC, symSize: 0x2C }
  - { offsetInCU: 0xEA37, offset: 0xEA37, size: 0x8, addend: 0x0, symName: __ZNSt3__14listIiNS_9allocatorIiEEE3endB7v160006Ev, symObjAddr: 0x3D4, symBinAddr: 0x100002B4C, symSize: 0x2C }
  - { offsetInCU: 0xEA5D, offset: 0xEA5D, size: 0x8, addend: 0x0, symName: __ZNKSt3__115__list_iteratorIiPvEdeB7v160006Ev, symObjAddr: 0x400, symBinAddr: 0x100002B78, symSize: 0x2C }
  - { offsetInCU: 0xEA83, offset: 0xEA83, size: 0x8, addend: 0x0, symName: __ZNSt3__115__list_iteratorIiPvEppB7v160006Ev, symObjAddr: 0x42C, symBinAddr: 0x100002BA4, symSize: 0x20 }
  - { offsetInCU: 0xEAA9, offset: 0xEAA9, size: 0x8, addend: 0x0, symName: _main, symObjAddr: 0x44C, symBinAddr: 0x100002BC4, symSize: 0x100 }
  - { offsetInCU: 0xEAD3, offset: 0xEAD3, size: 0x8, addend: 0x0, symName: __ZN5GraphC1Ev, symObjAddr: 0x54C, symBinAddr: 0x100002CC4, symSize: 0x2C }
  - { offsetInCU: 0xEAFF, offset: 0xEAFF, size: 0x8, addend: 0x0, symName: __ZN5GraphD1Ev, symObjAddr: 0x578, symBinAddr: 0x100002CF0, symSize: 0x2C }
  - { offsetInCU: 0xEB2B, offset: 0xEB2B, size: 0x8, addend: 0x0, symName: __ZN5GraphC2Ev, symObjAddr: 0x5A4, symBinAddr: 0x100002D1C, symSize: 0x38 }
  - { offsetInCU: 0xEB57, offset: 0xEB57, size: 0x8, addend: 0x0, symName: __ZNSt3__13mapIibNS_4lessIiEENS_9allocatorINS_4pairIKibEEEEEC1B7v160006Ev, symObjAddr: 0x5DC, symBinAddr: 0x100002D54, symSize: 0x2C }
  - { offsetInCU: 0xEB81, offset: 0xEB81, size: 0x8, addend: 0x0, symName: __ZNSt3__13mapIiNS_4listIiNS_9allocatorIiEEEENS_4lessIiEENS2_INS_4pairIKiS4_EEEEEC1B7v160006Ev, symObjAddr: 0x608, symBinAddr: 0x100002D80, symSize: 0x2C }
  - { offsetInCU: 0xEBAB, offset: 0xEBAB, size: 0x8, addend: 0x0, symName: __ZNSt3__13mapIibNS_4lessIiEENS_9allocatorINS_4pairIKibEEEEEC2B7v160006Ev, symObjAddr: 0x634, symBinAddr: 0x100002DAC, symSize: 0x40 }
  - { offsetInCU: 0xEBD5, offset: 0xEBD5, size: 0x8, addend: 0x0, symName: __ZNSt3__119__map_value_compareIiNS_12__value_typeIibEENS_4lessIiEELb1EEC1B7v160006ES4_, symObjAddr: 0x674, symBinAddr: 0x100002DEC, symSize: 0x2C }
  - { offsetInCU: 0xEC0E, offset: 0xEC0E, size: 0x8, addend: 0x0, symName: __ZNSt3__16__treeINS_12__value_typeIibEENS_19__map_value_compareIiS2_NS_4lessIiEELb1EEENS_9allocatorIS2_EEEC1ERKS6_, symObjAddr: 0x6A0, symBinAddr: 0x100002E18, symSize: 0x34 }
  - { offsetInCU: 0xEC49, offset: 0xEC49, size: 0x8, addend: 0x0, symName: __ZNSt3__119__map_value_compareIiNS_12__value_typeIibEENS_4lessIiEELb1EEC2B7v160006ES4_, symObjAddr: 0x6D4, symBinAddr: 0x100002E4C, symSize: 0x14 }
  - { offsetInCU: 0xEC82, offset: 0xEC82, size: 0x8, addend: 0x0, symName: __ZNSt3__16__treeINS_12__value_typeIibEENS_19__map_value_compareIiS2_NS_4lessIiEELb1EEENS_9allocatorIS2_EEEC2ERKS6_, symObjAddr: 0x6E8, symBinAddr: 0x100002E60, symSize: 0x7C }
  - { offsetInCU: 0xECBD, offset: 0xECBD, size: 0x8, addend: 0x0, symName: __ZNSt3__117__compressed_pairINS_15__tree_end_nodeIPNS_16__tree_node_baseIPvEEEENS_9allocatorINS_11__tree_nodeINS_12__value_typeIibEES3_EEEEEC1B7v160006ILb1EvEEv, symObjAddr: 0x764, symBinAddr: 0x100002EDC, symSize: 0x2C }
  - { offsetInCU: 0xECF7, offset: 0xECF7, size: 0x8, addend: 0x0, symName: __ZNSt3__117__compressed_pairImNS_19__map_value_compareIiNS_12__value_typeIibEENS_4lessIiEELb1EEEEC1B7v160006IiRKS6_EEOT_OT0_, symObjAddr: 0x79C, symBinAddr: 0x100002F14, symSize: 0x3C }
  - { offsetInCU: 0xED4F, offset: 0xED4F, size: 0x8, addend: 0x0, symName: __ZNSt3__16__treeINS_12__value_typeIibEENS_19__map_value_compareIiS2_NS_4lessIiEELb1EEENS_9allocatorIS2_EEE10__end_nodeB7v160006Ev, symObjAddr: 0x7D8, symBinAddr: 0x100002F50, symSize: 0x2C }
  - { offsetInCU: 0xED75, offset: 0xED75, size: 0x8, addend: 0x0, symName: __ZNSt3__16__treeINS_12__value_typeIibEENS_19__map_value_compareIiS2_NS_4lessIiEELb1EEENS_9allocatorIS2_EEE12__begin_nodeB7v160006Ev, symObjAddr: 0x804, symBinAddr: 0x100002F7C, symSize: 0x14 }
  - { offsetInCU: 0xED9B, offset: 0xED9B, size: 0x8, addend: 0x0, symName: __ZNSt3__117__compressed_pairINS_15__tree_end_nodeIPNS_16__tree_node_baseIPvEEEENS_9allocatorINS_11__tree_nodeINS_12__value_typeIibEES3_EEEEEC2B7v160006ILb1EvEEv, symObjAddr: 0x818, symBinAddr: 0x100002F90, symSize: 0x34 }
  - { offsetInCU: 0xEDD0, offset: 0xEDD0, size: 0x8, addend: 0x0, symName: __ZNSt3__122__compressed_pair_elemINS_15__tree_end_nodeIPNS_16__tree_node_baseIPvEEEELi0ELb0EEC2B7v160006ENS_16__value_init_tagE, symObjAddr: 0x84C, symBinAddr: 0x100002FC4, symSize: 0x2C }
  - { offsetInCU: 0xEE05, offset: 0xEE05, size: 0x8, addend: 0x0, symName: __ZNSt3__122__compressed_pair_elemINS_9allocatorINS_11__tree_nodeINS_12__value_typeIibEEPvEEEELi1ELb1EEC2B7v160006ENS_16__value_init_tagE, symObjAddr: 0x878, symBinAddr: 0x100002FF0, symSize: 0x2C }
  - { offsetInCU: 0xEE3A, offset: 0xEE3A, size: 0x8, addend: 0x0, symName: __ZNSt3__115__tree_end_nodeIPNS_16__tree_node_baseIPvEEEC1B7v160006Ev, symObjAddr: 0x8A4, symBinAddr: 0x10000301C, symSize: 0x2C }
  - { offsetInCU: 0xEE64, offset: 0xEE64, size: 0x8, addend: 0x0, symName: __ZNSt3__115__tree_end_nodeIPNS_16__tree_node_baseIPvEEEC2B7v160006Ev, symObjAddr: 0x8D0, symBinAddr: 0x100003048, symSize: 0x18 }
  - { offsetInCU: 0xEE8E, offset: 0xEE8E, size: 0x8, addend: 0x0, symName: __ZNSt3__19allocatorINS_11__tree_nodeINS_12__value_typeIibEEPvEEEC2B7v160006Ev, symObjAddr: 0x8E8, symBinAddr: 0x100003060, symSize: 0x2C }
  - { offsetInCU: 0xEEB8, offset: 0xEEB8, size: 0x8, addend: 0x0, symName: __ZNSt3__116__non_trivial_ifILb1ENS_9allocatorINS_11__tree_nodeINS_12__value_typeIibEEPvEEEEEC2B7v160006Ev, symObjAddr: 0x914, symBinAddr: 0x10000308C, symSize: 0x14 }
  - { offsetInCU: 0xEEE2, offset: 0xEEE2, size: 0x8, addend: 0x0, symName: __ZNSt3__117__compressed_pairImNS_19__map_value_compareIiNS_12__value_typeIibEENS_4lessIiEELb1EEEEC2B7v160006IiRKS6_EEOT_OT0_, symObjAddr: 0x928, symBinAddr: 0x1000030A0, symSize: 0x44 }
  - { offsetInCU: 0xEF3A, offset: 0xEF3A, size: 0x8, addend: 0x0, symName: __ZNSt3__122__compressed_pair_elemImLi0ELb0EEC2B7v160006IivEEOT_, symObjAddr: 0x96C, symBinAddr: 0x1000030E4, symSize: 0x24 }
  - { offsetInCU: 0xEF7C, offset: 0xEF7C, size: 0x8, addend: 0x0, symName: __ZNSt3__122__compressed_pair_elemINS_19__map_value_compareIiNS_12__value_typeIibEENS_4lessIiEELb1EEELi1ELb1EEC2B7v160006IRKS6_vEEOT_, symObjAddr: 0x990, symBinAddr: 0x100003108, symSize: 0x18 }
  - { offsetInCU: 0xEFBE, offset: 0xEFBE, size: 0x8, addend: 0x0, symName: __ZNSt3__114pointer_traitsIPNS_15__tree_end_nodeIPNS_16__tree_node_baseIPvEEEEE10pointer_toB7v160006ERS6_, symObjAddr: 0x9A8, symBinAddr: 0x100003120, symSize: 0x14 }
  - { offsetInCU: 0xEFE1, offset: 0xEFE1, size: 0x8, addend: 0x0, symName: __ZNSt3__117__compressed_pairINS_15__tree_end_nodeIPNS_16__tree_node_baseIPvEEEENS_9allocatorINS_11__tree_nodeINS_12__value_typeIibEES3_EEEEE5firstB7v160006Ev, symObjAddr: 0x9BC, symBinAddr: 0x100003134, symSize: 0x24 }
  - { offsetInCU: 0xF007, offset: 0xF007, size: 0x8, addend: 0x0, symName: __ZNSt3__122__compressed_pair_elemINS_15__tree_end_nodeIPNS_16__tree_node_baseIPvEEEELi0ELb0EE5__getB7v160006Ev, symObjAddr: 0x9E0, symBinAddr: 0x100003158, symSize: 0x14 }
  - { offsetInCU: 0xF02D, offset: 0xF02D, size: 0x8, addend: 0x0, symName: __ZNSt3__13mapIiNS_4listIiNS_9allocatorIiEEEENS_4lessIiEENS2_INS_4pairIKiS4_EEEEEC2B7v160006Ev, symObjAddr: 0x9F4, symBinAddr: 0x10000316C, symSize: 0x40 }
  - { offsetInCU: 0xF057, offset: 0xF057, size: 0x8, addend: 0x0, symName: __ZNSt3__119__map_value_compareIiNS_12__value_typeIiNS_4listIiNS_9allocatorIiEEEEEENS_4lessIiEELb1EEC1B7v160006ES8_, symObjAddr: 0xA34, symBinAddr: 0x1000031AC, symSize: 0x2C }
  - { offsetInCU: 0xF090, offset: 0xF090, size: 0x8, addend: 0x0, symName: __ZNSt3__16__treeINS_12__value_typeIiNS_4listIiNS_9allocatorIiEEEEEENS_19__map_value_compareIiS6_NS_4lessIiEELb1EEENS3_IS6_EEEC1ERKSA_, symObjAddr: 0xA60, symBinAddr: 0x1000031D8, symSize: 0x34 }
  - { offsetInCU: 0xF0CB, offset: 0xF0CB, size: 0x8, addend: 0x0, symName: __ZNSt3__119__map_value_compareIiNS_12__value_typeIiNS_4listIiNS_9allocatorIiEEEEEENS_4lessIiEELb1EEC2B7v160006ES8_, symObjAddr: 0xA94, symBinAddr: 0x10000320C, symSize: 0x14 }
  - { offsetInCU: 0xF104, offset: 0xF104, size: 0x8, addend: 0x0, symName: __ZNSt3__16__treeINS_12__value_typeIiNS_4listIiNS_9allocatorIiEEEEEENS_19__map_value_compareIiS6_NS_4lessIiEELb1EEENS3_IS6_EEEC2ERKSA_, symObjAddr: 0xAA8, symBinAddr: 0x100003220, symSize: 0x7C }
  - { offsetInCU: 0xF13F, offset: 0xF13F, size: 0x8, addend: 0x0, symName: __ZNSt3__117__compressed_pairINS_15__tree_end_nodeIPNS_16__tree_node_baseIPvEEEENS_9allocatorINS_11__tree_nodeINS_12__value_typeIiNS_4listIiNS7_IiEEEEEES3_EEEEEC1B7v160006ILb1EvEEv, symObjAddr: 0xB24, symBinAddr: 0x10000329C, symSize: 0x2C }
  - { offsetInCU: 0xF174, offset: 0xF174, size: 0x8, addend: 0x0, symName: __ZNSt3__117__compressed_pairImNS_19__map_value_compareIiNS_12__value_typeIiNS_4listIiNS_9allocatorIiEEEEEENS_4lessIiEELb1EEEEC1B7v160006IiRKSA_EEOT_OT0_, symObjAddr: 0xB50, symBinAddr: 0x1000032C8, symSize: 0x3C }
  - { offsetInCU: 0xF1CC, offset: 0xF1CC, size: 0x8, addend: 0x0, symName: __ZNSt3__16__treeINS_12__value_typeIiNS_4listIiNS_9allocatorIiEEEEEENS_19__map_value_compareIiS6_NS_4lessIiEELb1EEENS3_IS6_EEE10__end_nodeB7v160006Ev, symObjAddr: 0xB8C, symBinAddr: 0x100003304, symSize: 0x2C }
  - { offsetInCU: 0xF1F2, offset: 0xF1F2, size: 0x8, addend: 0x0, symName: __ZNSt3__16__treeINS_12__value_typeIiNS_4listIiNS_9allocatorIiEEEEEENS_19__map_value_compareIiS6_NS_4lessIiEELb1EEENS3_IS6_EEE12__begin_nodeB7v160006Ev, symObjAddr: 0xBB8, symBinAddr: 0x100003330, symSize: 0x14 }
  - { offsetInCU: 0xF218, offset: 0xF218, size: 0x8, addend: 0x0, symName: __ZNSt3__117__compressed_pairINS_15__tree_end_nodeIPNS_16__tree_node_baseIPvEEEENS_9allocatorINS_11__tree_nodeINS_12__value_typeIiNS_4listIiNS7_IiEEEEEES3_EEEEEC2B7v160006ILb1EvEEv, symObjAddr: 0xBCC, symBinAddr: 0x100003344, symSize: 0x34 }
  - { offsetInCU: 0xF24D, offset: 0xF24D, size: 0x8, addend: 0x0, symName: __ZNSt3__122__compressed_pair_elemINS_9allocatorINS_11__tree_nodeINS_12__value_typeIiNS_4listIiNS1_IiEEEEEEPvEEEELi1ELb1EEC2B7v160006ENS_16__value_init_tagE, symObjAddr: 0xC00, symBinAddr: 0x100003378, symSize: 0x2C }
  - { offsetInCU: 0xF282, offset: 0xF282, size: 0x8, addend: 0x0, symName: __ZNSt3__19allocatorINS_11__tree_nodeINS_12__value_typeIiNS_4listIiNS0_IiEEEEEEPvEEEC2B7v160006Ev, symObjAddr: 0xC2C, symBinAddr: 0x1000033A4, symSize: 0x2C }
  - { offsetInCU: 0xF2AC, offset: 0xF2AC, size: 0x8, addend: 0x0, symName: __ZNSt3__116__non_trivial_ifILb1ENS_9allocatorINS_11__tree_nodeINS_12__value_typeIiNS_4listIiNS1_IiEEEEEEPvEEEEEC2B7v160006Ev, symObjAddr: 0xC58, symBinAddr: 0x1000033D0, symSize: 0x14 }
  - { offsetInCU: 0xF2D6, offset: 0xF2D6, size: 0x8, addend: 0x0, symName: __ZNSt3__117__compressed_pairImNS_19__map_value_compareIiNS_12__value_typeIiNS_4listIiNS_9allocatorIiEEEEEENS_4lessIiEELb1EEEEC2B7v160006IiRKSA_EEOT_OT0_, symObjAddr: 0xC6C, symBinAddr: 0x1000033E4, symSize: 0x44 }
  - { offsetInCU: 0xF32E, offset: 0xF32E, size: 0x8, addend: 0x0, symName: __ZNSt3__122__compressed_pair_elemINS_19__map_value_compareIiNS_12__value_typeIiNS_4listIiNS_9allocatorIiEEEEEENS_4lessIiEELb1EEELi1ELb1EEC2B7v160006IRKSA_vEEOT_, symObjAddr: 0xCB0, symBinAddr: 0x100003428, symSize: 0x18 }
  - { offsetInCU: 0xF370, offset: 0xF370, size: 0x8, addend: 0x0, symName: __ZNSt3__117__compressed_pairINS_15__tree_end_nodeIPNS_16__tree_node_baseIPvEEEENS_9allocatorINS_11__tree_nodeINS_12__value_typeIiNS_4listIiNS7_IiEEEEEES3_EEEEE5firstB7v160006Ev, symObjAddr: 0xCC8, symBinAddr: 0x100003440, symSize: 0x24 }
  - { offsetInCU: 0xF396, offset: 0xF396, size: 0x8, addend: 0x0, symName: __ZN5GraphD2Ev, symObjAddr: 0xCEC, symBinAddr: 0x100003464, symSize: 0x38 }
  - { offsetInCU: 0xF3C2, offset: 0xF3C2, size: 0x8, addend: 0x0, symName: __ZNSt3__13mapIiNS_4listIiNS_9allocatorIiEEEENS_4lessIiEENS2_INS_4pairIKiS4_EEEEED1B7v160006Ev, symObjAddr: 0xD24, symBinAddr: 0x10000349C, symSize: 0x2C }
  - { offsetInCU: 0xF3EC, offset: 0xF3EC, size: 0x8, addend: 0x0, symName: __ZNSt3__13mapIibNS_4lessIiEENS_9allocatorINS_4pairIKibEEEEED1B7v160006Ev, symObjAddr: 0xD50, symBinAddr: 0x1000034C8, symSize: 0x2C }
  - { offsetInCU: 0xF416, offset: 0xF416, size: 0x8, addend: 0x0, symName: __ZNSt3__13mapIiNS_4listIiNS_9allocatorIiEEEENS_4lessIiEENS2_INS_4pairIKiS4_EEEEED2B7v160006Ev, symObjAddr: 0xD7C, symBinAddr: 0x1000034F4, symSize: 0x2C }
  - { offsetInCU: 0xF440, offset: 0xF440, size: 0x8, addend: 0x0, symName: __ZNSt3__16__treeINS_12__value_typeIiNS_4listIiNS_9allocatorIiEEEEEENS_19__map_value_compareIiS6_NS_4lessIiEELb1EEENS3_IS6_EEED1Ev, symObjAddr: 0xDA8, symBinAddr: 0x100003520, symSize: 0x2C }
  - { offsetInCU: 0xF46C, offset: 0xF46C, size: 0x8, addend: 0x0, symName: __ZNSt3__16__treeINS_12__value_typeIiNS_4listIiNS_9allocatorIiEEEEEENS_19__map_value_compareIiS6_NS_4lessIiEELb1EEENS3_IS6_EEED2Ev, symObjAddr: 0xDD4, symBinAddr: 0x10000354C, symSize: 0x38 }
  - { offsetInCU: 0xF498, offset: 0xF498, size: 0x8, addend: 0x0, symName: __ZNSt3__16__treeINS_12__value_typeIiNS_4listIiNS_9allocatorIiEEEEEENS_19__map_value_compareIiS6_NS_4lessIiEELb1EEENS3_IS6_EEE7destroyEPNS_11__tree_nodeIS6_PvEE, symObjAddr: 0xE0C, symBinAddr: 0x100003584, symSize: 0xAC }
  - { offsetInCU: 0xF4E4, offset: 0xF4E4, size: 0x8, addend: 0x0, symName: __ZNKSt3__16__treeINS_12__value_typeIiNS_4listIiNS_9allocatorIiEEEEEENS_19__map_value_compareIiS6_NS_4lessIiEELb1EEENS3_IS6_EEE6__rootB7v160006Ev, symObjAddr: 0xEB8, symBinAddr: 0x100003630, symSize: 0x28 }
  - { offsetInCU: 0xF50A, offset: 0xF50A, size: 0x8, addend: 0x0, symName: __ZNSt3__16__treeINS_12__value_typeIiNS_4listIiNS_9allocatorIiEEEEEENS_19__map_value_compareIiS6_NS_4lessIiEELb1EEENS3_IS6_EEE12__node_allocB7v160006Ev, symObjAddr: 0xEE0, symBinAddr: 0x100003658, symSize: 0x28 }
  - { offsetInCU: 0xF530, offset: 0xF530, size: 0x8, addend: 0x0, symName: __ZNSt3__116allocator_traitsINS_9allocatorINS_11__tree_nodeINS_12__value_typeIiNS_4listIiNS1_IiEEEEEEPvEEEEE7destroyB7v160006INS_4pairIKiS6_EEvvEEvRSA_PT_, symObjAddr: 0xF08, symBinAddr: 0x100003680, symSize: 0x28 }
  - { offsetInCU: 0xF56B, offset: 0xF56B, size: 0x8, addend: 0x0, symName: __ZNSt3__122__tree_key_value_typesINS_12__value_typeIiNS_4listIiNS_9allocatorIiEEEEEEE9__get_ptrB7v160006ERS6_, symObjAddr: 0xF30, symBinAddr: 0x1000036A8, symSize: 0x24 }
  - { offsetInCU: 0xF58F, offset: 0xF58F, size: 0x8, addend: 0x0, symName: __ZNSt3__116allocator_traitsINS_9allocatorINS_11__tree_nodeINS_12__value_typeIiNS_4listIiNS1_IiEEEEEEPvEEEEE10deallocateB7v160006ERSA_PS9_m, symObjAddr: 0xF54, symBinAddr: 0x1000036CC, symSize: 0x34 }
  - { offsetInCU: 0xF5D1, offset: 0xF5D1, size: 0x8, addend: 0x0, symName: __ZNSt3__117__compressed_pairINS_15__tree_end_nodeIPNS_16__tree_node_baseIPvEEEENS_9allocatorINS_11__tree_nodeINS_12__value_typeIiNS_4listIiNS7_IiEEEEEES3_EEEEE6secondB7v160006Ev, symObjAddr: 0xF88, symBinAddr: 0x100003700, symSize: 0x24 }
  - { offsetInCU: 0xF5F7, offset: 0xF5F7, size: 0x8, addend: 0x0, symName: __ZNSt3__122__compressed_pair_elemINS_9allocatorINS_11__tree_nodeINS_12__value_typeIiNS_4listIiNS1_IiEEEEEEPvEEEELi1ELb1EE5__getB7v160006Ev, symObjAddr: 0xFAC, symBinAddr: 0x100003724, symSize: 0x14 }
  - { offsetInCU: 0xF61D, offset: 0xF61D, size: 0x8, addend: 0x0, symName: __ZNSt3__14pairIKiNS_4listIiNS_9allocatorIiEEEEED1Ev, symObjAddr: 0xFC0, symBinAddr: 0x100003738, symSize: 0x2C }
  - { offsetInCU: 0xF649, offset: 0xF649, size: 0x8, addend: 0x0, symName: __ZNSt3__14pairIKiNS_4listIiNS_9allocatorIiEEEEED2Ev, symObjAddr: 0xFEC, symBinAddr: 0x100003764, symSize: 0x30 }
  - { offsetInCU: 0xF675, offset: 0xF675, size: 0x8, addend: 0x0, symName: __ZNSt3__14listIiNS_9allocatorIiEEED1Ev, symObjAddr: 0x101C, symBinAddr: 0x100003794, symSize: 0x2C }
  - { offsetInCU: 0xF6A2, offset: 0xF6A2, size: 0x8, addend: 0x0, symName: __ZNSt3__14listIiNS_9allocatorIiEEED2Ev, symObjAddr: 0x1048, symBinAddr: 0x1000037C0, symSize: 0x2C }
  - { offsetInCU: 0xF6CF, offset: 0xF6CF, size: 0x8, addend: 0x0, symName: __ZNSt3__110__list_impIiNS_9allocatorIiEEED2Ev, symObjAddr: 0x1074, symBinAddr: 0x1000037EC, symSize: 0x3C }
  - { offsetInCU: 0xF6FB, offset: 0xF6FB, size: 0x8, addend: 0x0, symName: __ZNSt3__110__list_impIiNS_9allocatorIiEEE5clearEv, symObjAddr: 0x10B0, symBinAddr: 0x100003828, symSize: 0xEC }
  - { offsetInCU: 0xF76B, offset: 0xF76B, size: 0x8, addend: 0x0, symName: __ZNKSt3__110__list_impIiNS_9allocatorIiEEE5emptyB7v160006Ev, symObjAddr: 0x11AC, symBinAddr: 0x100003924, symSize: 0x34 }
  - { offsetInCU: 0xF791, offset: 0xF791, size: 0x8, addend: 0x0, symName: __ZNSt3__110__list_impIiNS_9allocatorIiEEE12__node_allocB7v160006Ev, symObjAddr: 0x11E0, symBinAddr: 0x100003958, symSize: 0x28 }
  - { offsetInCU: 0xF7B7, offset: 0xF7B7, size: 0x8, addend: 0x0, symName: __ZNKSt3__110__list_impIiNS_9allocatorIiEEE13__end_as_linkB7v160006Ev, symObjAddr: 0x1208, symBinAddr: 0x100003980, symSize: 0x44 }
  - { offsetInCU: 0xF7DD, offset: 0xF7DD, size: 0x8, addend: 0x0, symName: __ZNSt3__110__list_impIiNS_9allocatorIiEEE14__unlink_nodesEPNS_16__list_node_baseIiPvEES7_, symObjAddr: 0x124C, symBinAddr: 0x1000039C4, symSize: 0x3C }
  - { offsetInCU: 0xF812, offset: 0xF812, size: 0x8, addend: 0x0, symName: __ZNSt3__110__list_impIiNS_9allocatorIiEEE4__szB7v160006Ev, symObjAddr: 0x1288, symBinAddr: 0x100003A00, symSize: 0x28 }
  - { offsetInCU: 0xF838, offset: 0xF838, size: 0x8, addend: 0x0, symName: __ZNSt3__116__list_node_baseIiPvE9__as_nodeB7v160006Ev, symObjAddr: 0x12B0, symBinAddr: 0x100003A28, symSize: 0x24 }
  - { offsetInCU: 0xF85E, offset: 0xF85E, size: 0x8, addend: 0x0, symName: __ZNSt3__116allocator_traitsINS_9allocatorINS_11__list_nodeIiPvEEEEE7destroyB7v160006IivvEEvRS5_PT_, symObjAddr: 0x12D4, symBinAddr: 0x100003A4C, symSize: 0x14 }
  - { offsetInCU: 0xF899, offset: 0xF899, size: 0x8, addend: 0x0, symName: __ZNSt3__116allocator_traitsINS_9allocatorINS_11__list_nodeIiPvEEEEE10deallocateB7v160006ERS5_PS4_m, symObjAddr: 0x12E8, symBinAddr: 0x100003A60, symSize: 0x34 }
  - { offsetInCU: 0xF8DB, offset: 0xF8DB, size: 0x8, addend: 0x0, symName: __ZNKSt3__110__list_impIiNS_9allocatorIiEEE4__szB7v160006Ev, symObjAddr: 0x132C, symBinAddr: 0x100003AA4, symSize: 0x28 }
  - { offsetInCU: 0xF901, offset: 0xF901, size: 0x8, addend: 0x0, symName: __ZNKSt3__117__compressed_pairImNS_9allocatorINS_11__list_nodeIiPvEEEEE5firstB7v160006Ev, symObjAddr: 0x1354, symBinAddr: 0x100003ACC, symSize: 0x24 }
  - { offsetInCU: 0xF927, offset: 0xF927, size: 0x8, addend: 0x0, symName: __ZNKSt3__122__compressed_pair_elemImLi0ELb0EE5__getB7v160006Ev, symObjAddr: 0x1378, symBinAddr: 0x100003AF0, symSize: 0x14 }
  - { offsetInCU: 0xF94D, offset: 0xF94D, size: 0x8, addend: 0x0, symName: __ZNSt3__117__compressed_pairImNS_9allocatorINS_11__list_nodeIiPvEEEEE6secondB7v160006Ev, symObjAddr: 0x138C, symBinAddr: 0x100003B04, symSize: 0x24 }
  - { offsetInCU: 0xF973, offset: 0xF973, size: 0x8, addend: 0x0, symName: __ZNSt3__122__compressed_pair_elemINS_9allocatorINS_11__list_nodeIiPvEEEELi1ELb1EE5__getB7v160006Ev, symObjAddr: 0x13B0, symBinAddr: 0x100003B28, symSize: 0x14 }
  - { offsetInCU: 0xF999, offset: 0xF999, size: 0x8, addend: 0x0, symName: __ZNSt3__126__list_node_pointer_traitsIiPvE26__unsafe_link_pointer_castB7v160006EPNS_16__list_node_baseIiS1_EE, symObjAddr: 0x13C4, symBinAddr: 0x100003B3C, symSize: 0x14 }
  - { offsetInCU: 0xF9BD, offset: 0xF9BD, size: 0x8, addend: 0x0, symName: __ZNSt3__116__list_node_baseIiPvE6__selfB7v160006Ev, symObjAddr: 0x13D8, symBinAddr: 0x100003B50, symSize: 0x24 }
  - { offsetInCU: 0xF9E8, offset: 0xF9E8, size: 0x8, addend: 0x0, symName: __ZNSt3__114pointer_traitsIPNS_16__list_node_baseIiPvEEE10pointer_toB7v160006ERS3_, symObjAddr: 0x13FC, symBinAddr: 0x100003B74, symSize: 0x14 }
  - { offsetInCU: 0xFA0B, offset: 0xFA0B, size: 0x8, addend: 0x0, symName: __ZNSt3__117__compressed_pairImNS_9allocatorINS_11__list_nodeIiPvEEEEE5firstB7v160006Ev, symObjAddr: 0x1410, symBinAddr: 0x100003B88, symSize: 0x24 }
  - { offsetInCU: 0xFA31, offset: 0xFA31, size: 0x8, addend: 0x0, symName: __ZNSt3__122__compressed_pair_elemImLi0ELb0EE5__getB7v160006Ev, symObjAddr: 0x1434, symBinAddr: 0x100003BAC, symSize: 0x14 }
  - { offsetInCU: 0xFA57, offset: 0xFA57, size: 0x8, addend: 0x0, symName: __ZNSt3__19allocatorINS_11__list_nodeIiPvEEE10deallocateB7v160006EPS3_m, symObjAddr: 0x1448, symBinAddr: 0x100003BC0, symSize: 0x44 }
  - { offsetInCU: 0xFA99, offset: 0xFA99, size: 0x8, addend: 0x0, symName: __ZNSt3__112__value_typeIiNS_4listIiNS_9allocatorIiEEEEE11__get_valueB7v160006Ev, symObjAddr: 0x1508, symBinAddr: 0x100003C80, symSize: 0x14 }
  - { offsetInCU: 0xFABF, offset: 0xFABF, size: 0x8, addend: 0x0, symName: __ZNSt3__19allocatorINS_11__tree_nodeINS_12__value_typeIiNS_4listIiNS0_IiEEEEEEPvEEE10deallocateB7v160006EPS8_m, symObjAddr: 0x151C, symBinAddr: 0x100003C94, symSize: 0x40 }
  - { offsetInCU: 0xFB01, offset: 0xFB01, size: 0x8, addend: 0x0, symName: __ZNKSt3__16__treeINS_12__value_typeIiNS_4listIiNS_9allocatorIiEEEEEENS_19__map_value_compareIiS6_NS_4lessIiEELb1EEENS3_IS6_EEE10__end_nodeB7v160006Ev, symObjAddr: 0x155C, symBinAddr: 0x100003CD4, symSize: 0x2C }
  - { offsetInCU: 0xFB27, offset: 0xFB27, size: 0x8, addend: 0x0, symName: __ZNKSt3__117__compressed_pairINS_15__tree_end_nodeIPNS_16__tree_node_baseIPvEEEENS_9allocatorINS_11__tree_nodeINS_12__value_typeIiNS_4listIiNS7_IiEEEEEES3_EEEEE5firstB7v160006Ev, symObjAddr: 0x1588, symBinAddr: 0x100003D00, symSize: 0x24 }
  - { offsetInCU: 0xFB4D, offset: 0xFB4D, size: 0x8, addend: 0x0, symName: __ZNKSt3__122__compressed_pair_elemINS_15__tree_end_nodeIPNS_16__tree_node_baseIPvEEEELi0ELb0EE5__getB7v160006Ev, symObjAddr: 0x15AC, symBinAddr: 0x100003D24, symSize: 0x14 }
  - { offsetInCU: 0xFB73, offset: 0xFB73, size: 0x8, addend: 0x0, symName: __ZNSt3__13mapIibNS_4lessIiEENS_9allocatorINS_4pairIKibEEEEED2B7v160006Ev, symObjAddr: 0x15C0, symBinAddr: 0x100003D38, symSize: 0x2C }
  - { offsetInCU: 0xFB9D, offset: 0xFB9D, size: 0x8, addend: 0x0, symName: __ZNSt3__16__treeINS_12__value_typeIibEENS_19__map_value_compareIiS2_NS_4lessIiEELb1EEENS_9allocatorIS2_EEED1Ev, symObjAddr: 0x15EC, symBinAddr: 0x100003D64, symSize: 0x2C }
  - { offsetInCU: 0xFBC9, offset: 0xFBC9, size: 0x8, addend: 0x0, symName: __ZNSt3__16__treeINS_12__value_typeIibEENS_19__map_value_compareIiS2_NS_4lessIiEELb1EEENS_9allocatorIS2_EEED2Ev, symObjAddr: 0x1618, symBinAddr: 0x100003D90, symSize: 0x38 }
  - { offsetInCU: 0xFBF5, offset: 0xFBF5, size: 0x8, addend: 0x0, symName: __ZNSt3__16__treeINS_12__value_typeIibEENS_19__map_value_compareIiS2_NS_4lessIiEELb1EEENS_9allocatorIS2_EEE7destroyEPNS_11__tree_nodeIS2_PvEE, symObjAddr: 0x1650, symBinAddr: 0x100003DC8, symSize: 0xAC }
  - { offsetInCU: 0xFC41, offset: 0xFC41, size: 0x8, addend: 0x0, symName: __ZNKSt3__16__treeINS_12__value_typeIibEENS_19__map_value_compareIiS2_NS_4lessIiEELb1EEENS_9allocatorIS2_EEE6__rootB7v160006Ev, symObjAddr: 0x16FC, symBinAddr: 0x100003E74, symSize: 0x28 }
  - { offsetInCU: 0xFC67, offset: 0xFC67, size: 0x8, addend: 0x0, symName: __ZNSt3__16__treeINS_12__value_typeIibEENS_19__map_value_compareIiS2_NS_4lessIiEELb1EEENS_9allocatorIS2_EEE12__node_allocB7v160006Ev, symObjAddr: 0x1724, symBinAddr: 0x100003E9C, symSize: 0x28 }
  - { offsetInCU: 0xFC8D, offset: 0xFC8D, size: 0x8, addend: 0x0, symName: __ZNSt3__116allocator_traitsINS_9allocatorINS_11__tree_nodeINS_12__value_typeIibEEPvEEEEE7destroyB7v160006INS_4pairIKibEEvvEEvRS7_PT_, symObjAddr: 0x174C, symBinAddr: 0x100003EC4, symSize: 0x14 }
  - { offsetInCU: 0xFCC8, offset: 0xFCC8, size: 0x8, addend: 0x0, symName: __ZNSt3__122__tree_key_value_typesINS_12__value_typeIibEEE9__get_ptrB7v160006ERS2_, symObjAddr: 0x1760, symBinAddr: 0x100003ED8, symSize: 0x24 }
  - { offsetInCU: 0xFCEC, offset: 0xFCEC, size: 0x8, addend: 0x0, symName: __ZNSt3__116allocator_traitsINS_9allocatorINS_11__tree_nodeINS_12__value_typeIibEEPvEEEEE10deallocateB7v160006ERS7_PS6_m, symObjAddr: 0x1784, symBinAddr: 0x100003EFC, symSize: 0x34 }
  - { offsetInCU: 0xFD2E, offset: 0xFD2E, size: 0x8, addend: 0x0, symName: __ZNSt3__117__compressed_pairINS_15__tree_end_nodeIPNS_16__tree_node_baseIPvEEEENS_9allocatorINS_11__tree_nodeINS_12__value_typeIibEES3_EEEEE6secondB7v160006Ev, symObjAddr: 0x17B8, symBinAddr: 0x100003F30, symSize: 0x24 }
  - { offsetInCU: 0xFD54, offset: 0xFD54, size: 0x8, addend: 0x0, symName: __ZNSt3__122__compressed_pair_elemINS_9allocatorINS_11__tree_nodeINS_12__value_typeIibEEPvEEEELi1ELb1EE5__getB7v160006Ev, symObjAddr: 0x17DC, symBinAddr: 0x100003F54, symSize: 0x14 }
  - { offsetInCU: 0xFD7A, offset: 0xFD7A, size: 0x8, addend: 0x0, symName: __ZNSt3__112__value_typeIibE11__get_valueB7v160006Ev, symObjAddr: 0x17F0, symBinAddr: 0x100003F68, symSize: 0x14 }
  - { offsetInCU: 0xFDA0, offset: 0xFDA0, size: 0x8, addend: 0x0, symName: __ZNSt3__19allocatorINS_11__tree_nodeINS_12__value_typeIibEEPvEEE10deallocateB7v160006EPS5_m, symObjAddr: 0x1804, symBinAddr: 0x100003F7C, symSize: 0x44 }
  - { offsetInCU: 0xFDE2, offset: 0xFDE2, size: 0x8, addend: 0x0, symName: __ZNKSt3__16__treeINS_12__value_typeIibEENS_19__map_value_compareIiS2_NS_4lessIiEELb1EEENS_9allocatorIS2_EEE10__end_nodeB7v160006Ev, symObjAddr: 0x1848, symBinAddr: 0x100003FC0, symSize: 0x2C }
  - { offsetInCU: 0xFE08, offset: 0xFE08, size: 0x8, addend: 0x0, symName: __ZNKSt3__117__compressed_pairINS_15__tree_end_nodeIPNS_16__tree_node_baseIPvEEEENS_9allocatorINS_11__tree_nodeINS_12__value_typeIibEES3_EEEEE5firstB7v160006Ev, symObjAddr: 0x1874, symBinAddr: 0x100003FEC, symSize: 0x24 }
  - { offsetInCU: 0xFE42, offset: 0xFE42, size: 0x8, addend: 0x0, symName: __ZNSt3__16__treeINS_12__value_typeIiNS_4listIiNS_9allocatorIiEEEEEENS_19__map_value_compareIiS6_NS_4lessIiEELb1EEENS3_IS6_EEE25__emplace_unique_key_argsIiJRKNS_21piecewise_construct_tENS_5tupleIJRKiEEENSH_IJEEEEEENS_4pairINS_15__tree_iteratorIS6_PNS_11__tree_nodeIS6_PvEElEEbEERKT_DpOT0_, symObjAddr: 0x1898, symBinAddr: 0x100004010, symSize: 0x100 }
  - { offsetInCU: 0xFF18, offset: 0xFF18, size: 0x8, addend: 0x0, symName: __ZNKSt3__115__tree_iteratorINS_12__value_typeIiNS_4listIiNS_9allocatorIiEEEEEEPNS_11__tree_nodeIS6_PvEElEptB7v160006Ev, symObjAddr: 0x19C8, symBinAddr: 0x100004140, symSize: 0x2C }
  - { offsetInCU: 0xFF3E, offset: 0xFF3E, size: 0x8, addend: 0x0, symName: __ZNSt3__16__treeINS_12__value_typeIiNS_4listIiNS_9allocatorIiEEEEEENS_19__map_value_compareIiS6_NS_4lessIiEELb1EEENS3_IS6_EEE12__find_equalIiEERPNS_16__tree_node_baseIPvEERPNS_15__tree_end_nodeISH_EERKT_, symObjAddr: 0x19F4, symBinAddr: 0x10000416C, symSize: 0x184 }
  - { offsetInCU: 0xFFAB, offset: 0xFFAB, size: 0x8, addend: 0x0, symName: __ZNSt3__16__treeINS_12__value_typeIiNS_4listIiNS_9allocatorIiEEEEEENS_19__map_value_compareIiS6_NS_4lessIiEELb1EEENS3_IS6_EEE16__construct_nodeIJRKNS_21piecewise_construct_tENS_5tupleIJRKiEEENSH_IJEEEEEENS_10unique_ptrINS_11__tree_nodeIS6_PvEENS_22__tree_node_destructorINS3_ISP_EEEEEEDpOT_, symObjAddr: 0x1B78, symBinAddr: 0x1000042F0, symSize: 0x120 }
  - { offsetInCU: 0x10034, offset: 0x10034, size: 0x8, addend: 0x0, symName: __ZNSt3__16__treeINS_12__value_typeIiNS_4listIiNS_9allocatorIiEEEEEENS_19__map_value_compareIiS6_NS_4lessIiEELb1EEENS3_IS6_EEE16__insert_node_atEPNS_15__tree_end_nodeIPNS_16__tree_node_baseIPvEEEERSH_SH_, symObjAddr: 0x1C98, symBinAddr: 0x100004410, symSize: 0xCC }
  - { offsetInCU: 0x10089, offset: 0x10089, size: 0x8, addend: 0x0, symName: __ZNKSt3__110unique_ptrINS_11__tree_nodeINS_12__value_typeIiNS_4listIiNS_9allocatorIiEEEEEEPvEENS_22__tree_node_destructorINS4_IS9_EEEEE3getB7v160006Ev, symObjAddr: 0x1D64, symBinAddr: 0x1000044DC, symSize: 0x28 }
  - { offsetInCU: 0x100AF, offset: 0x100AF, size: 0x8, addend: 0x0, symName: __ZNSt3__110unique_ptrINS_11__tree_nodeINS_12__value_typeIiNS_4listIiNS_9allocatorIiEEEEEEPvEENS_22__tree_node_destructorINS4_IS9_EEEEE7releaseB7v160006Ev, symObjAddr: 0x1D8C, symBinAddr: 0x100004504, symSize: 0x44 }
  - { offsetInCU: 0x100E4, offset: 0x100E4, size: 0x8, addend: 0x0, symName: __ZNSt3__110unique_ptrINS_11__tree_nodeINS_12__value_typeIiNS_4listIiNS_9allocatorIiEEEEEEPvEENS_22__tree_node_destructorINS4_IS9_EEEEED1B7v160006Ev, symObjAddr: 0x1DD0, symBinAddr: 0x100004548, symSize: 0x2C }
  - { offsetInCU: 0x1010E, offset: 0x1010E, size: 0x8, addend: 0x0, symName: __ZNSt3__115__tree_iteratorINS_12__value_typeIiNS_4listIiNS_9allocatorIiEEEEEEPNS_11__tree_nodeIS6_PvEElEC1B7v160006ESA_, symObjAddr: 0x1DFC, symBinAddr: 0x100004574, symSize: 0x34 }
  - { offsetInCU: 0x10151, offset: 0x10151, size: 0x8, addend: 0x0, symName: __ZNSt3__14pairINS_15__tree_iteratorINS_12__value_typeIiNS_4listIiNS_9allocatorIiEEEEEEPNS_11__tree_nodeIS7_PvEElEEbEC1B7v160006ISC_RbLS9_0EEEOT_OT0_, symObjAddr: 0x1E30, symBinAddr: 0x1000045A8, symSize: 0x3C }
  - { offsetInCU: 0x101AF, offset: 0x101AF, size: 0x8, addend: 0x0, symName: __ZNKSt3__16__treeINS_12__value_typeIiNS_4listIiNS_9allocatorIiEEEEEENS_19__map_value_compareIiS6_NS_4lessIiEELb1EEENS3_IS6_EEE10__root_ptrEv, symObjAddr: 0x1E6C, symBinAddr: 0x1000045E4, symSize: 0x24 }
  - { offsetInCU: 0x101D5, offset: 0x101D5, size: 0x8, addend: 0x0, symName: __ZNSt3__16__treeINS_12__value_typeIiNS_4listIiNS_9allocatorIiEEEEEENS_19__map_value_compareIiS6_NS_4lessIiEELb1EEENS3_IS6_EEE10value_compB7v160006Ev, symObjAddr: 0x1E90, symBinAddr: 0x100004608, symSize: 0x28 }
  - { offsetInCU: 0x101FB, offset: 0x101FB, size: 0x8, addend: 0x0, symName: __ZNKSt3__119__map_value_compareIiNS_12__value_typeIiNS_4listIiNS_9allocatorIiEEEEEENS_4lessIiEELb1EEclB7v160006ERKiRKS6_, symObjAddr: 0x1EB8, symBinAddr: 0x100004630, symSize: 0x50 }
  - { offsetInCU: 0x1023F, offset: 0x1023F, size: 0x8, addend: 0x0, symName: __ZNKSt3__119__map_value_compareIiNS_12__value_typeIiNS_4listIiNS_9allocatorIiEEEEEENS_4lessIiEELb1EEclB7v160006ERKS6_RKi, symObjAddr: 0x1F08, symBinAddr: 0x100004680, symSize: 0x48 }
  - { offsetInCU: 0x10283, offset: 0x10283, size: 0x8, addend: 0x0, symName: __ZNSt3__117__compressed_pairImNS_19__map_value_compareIiNS_12__value_typeIiNS_4listIiNS_9allocatorIiEEEEEENS_4lessIiEELb1EEEE6secondB7v160006Ev, symObjAddr: 0x1F50, symBinAddr: 0x1000046C8, symSize: 0x24 }
  - { offsetInCU: 0x102A9, offset: 0x102A9, size: 0x8, addend: 0x0, symName: __ZNSt3__122__compressed_pair_elemINS_19__map_value_compareIiNS_12__value_typeIiNS_4listIiNS_9allocatorIiEEEEEENS_4lessIiEELb1EEELi1ELb1EE5__getB7v160006Ev, symObjAddr: 0x1F74, symBinAddr: 0x1000046EC, symSize: 0x14 }
  - { offsetInCU: 0x102CF, offset: 0x102CF, size: 0x8, addend: 0x0, symName: __ZNKSt3__14lessIiEclB7v160006ERKiS3_, symObjAddr: 0x1F88, symBinAddr: 0x100004700, symSize: 0x34 }
  - { offsetInCU: 0x10313, offset: 0x10313, size: 0x8, addend: 0x0, symName: __ZNKSt3__112__value_typeIiNS_4listIiNS_9allocatorIiEEEEE11__get_valueB7v160006Ev, symObjAddr: 0x1FBC, symBinAddr: 0x100004734, symSize: 0x14 }
  - { offsetInCU: 0x10339, offset: 0x10339, size: 0x8, addend: 0x0, symName: __ZNSt3__116allocator_traitsINS_9allocatorINS_11__tree_nodeINS_12__value_typeIiNS_4listIiNS1_IiEEEEEEPvEEEEE8allocateB7v160006ERSA_m, symObjAddr: 0x1FD0, symBinAddr: 0x100004748, symSize: 0x2C }
  - { offsetInCU: 0x1036C, offset: 0x1036C, size: 0x8, addend: 0x0, symName: __ZNSt3__122__tree_node_destructorINS_9allocatorINS_11__tree_nodeINS_12__value_typeIiNS_4listIiNS1_IiEEEEEEPvEEEEEC1B7v160006ERSA_b, symObjAddr: 0x1FFC, symBinAddr: 0x100004774, symSize: 0x48 }
  - { offsetInCU: 0x103B9, offset: 0x103B9, size: 0x8, addend: 0x0, symName: __ZNSt3__110unique_ptrINS_11__tree_nodeINS_12__value_typeIiNS_4listIiNS_9allocatorIiEEEEEEPvEENS_22__tree_node_destructorINS4_IS9_EEEEEC1B7v160006ILb1EvEEPS9_NS_16__dependent_typeINS_27__unique_ptr_deleter_sfinaeISC_EEXT_EE20__good_rval_ref_typeE, symObjAddr: 0x2044, symBinAddr: 0x1000047BC, symSize: 0x3C }
  - { offsetInCU: 0x1040A, offset: 0x1040A, size: 0x8, addend: 0x0, symName: __ZNSt3__116allocator_traitsINS_9allocatorINS_11__tree_nodeINS_12__value_typeIiNS_4listIiNS1_IiEEEEEEPvEEEEE9constructB7v160006INS_4pairIKiS6_EEJRKNS_21piecewise_construct_tENS_5tupleIJRSE_EEENSJ_IJEEEEvEEvRSA_PT_DpOT0_, symObjAddr: 0x2080, symBinAddr: 0x1000047F8, symSize: 0x44 }
  - { offsetInCU: 0x10489, offset: 0x10489, size: 0x8, addend: 0x0, symName: __ZNKSt3__110unique_ptrINS_11__tree_nodeINS_12__value_typeIiNS_4listIiNS_9allocatorIiEEEEEEPvEENS_22__tree_node_destructorINS4_IS9_EEEEEptB7v160006Ev, symObjAddr: 0x20C4, symBinAddr: 0x10000483C, symSize: 0x28 }
  - { offsetInCU: 0x104AF, offset: 0x104AF, size: 0x8, addend: 0x0, symName: __ZNSt3__110unique_ptrINS_11__tree_nodeINS_12__value_typeIiNS_4listIiNS_9allocatorIiEEEEEEPvEENS_22__tree_node_destructorINS4_IS9_EEEEE11get_deleterB7v160006Ev, symObjAddr: 0x20EC, symBinAddr: 0x100004864, symSize: 0x24 }
  - { offsetInCU: 0x104D5, offset: 0x104D5, size: 0x8, addend: 0x0, symName: __ZNSt3__19allocatorINS_11__tree_nodeINS_12__value_typeIiNS_4listIiNS0_IiEEEEEEPvEEE8allocateB7v160006Em, symObjAddr: 0x2110, symBinAddr: 0x100004888, symSize: 0x58 }
  - { offsetInCU: 0x10513, offset: 0x10513, size: 0x8, addend: 0x0, symName: __ZNSt3__116allocator_traitsINS_9allocatorINS_11__tree_nodeINS_12__value_typeIiNS_4listIiNS1_IiEEEEEEPvEEEEE8max_sizeB7v160006ISA_vEEmRKSA_, symObjAddr: 0x2168, symBinAddr: 0x1000048E0, symSize: 0x24 }
  - { offsetInCU: 0x10541, offset: 0x10541, size: 0x8, addend: 0x0, symName: __ZNKSt3__19allocatorINS_11__tree_nodeINS_12__value_typeIiNS_4listIiNS0_IiEEEEEEPvEEE8max_sizeB7v160006Ev, symObjAddr: 0x21E8, symBinAddr: 0x100004960, symSize: 0x14 }
  - { offsetInCU: 0x10567, offset: 0x10567, size: 0x8, addend: 0x0, symName: __ZNSt3__122__tree_node_destructorINS_9allocatorINS_11__tree_nodeINS_12__value_typeIiNS_4listIiNS1_IiEEEEEEPvEEEEEC2B7v160006ERSA_b, symObjAddr: 0x2220, symBinAddr: 0x100004998, symSize: 0x38 }
  - { offsetInCU: 0x105AF, offset: 0x105AF, size: 0x8, addend: 0x0, symName: __ZNSt3__110unique_ptrINS_11__tree_nodeINS_12__value_typeIiNS_4listIiNS_9allocatorIiEEEEEEPvEENS_22__tree_node_destructorINS4_IS9_EEEEEC2B7v160006ILb1EvEEPS9_NS_16__dependent_typeINS_27__unique_ptr_deleter_sfinaeISC_EEXT_EE20__good_rval_ref_typeE, symObjAddr: 0x2258, symBinAddr: 0x1000049D0, symSize: 0x48 }
  - { offsetInCU: 0x10600, offset: 0x10600, size: 0x8, addend: 0x0, symName: __ZNSt3__117__compressed_pairIPNS_11__tree_nodeINS_12__value_typeIiNS_4listIiNS_9allocatorIiEEEEEEPvEENS_22__tree_node_destructorINS4_IS9_EEEEEC1B7v160006IRSA_SD_EEOT_OT0_, symObjAddr: 0x22A0, symBinAddr: 0x100004A18, symSize: 0x3C }
  - { offsetInCU: 0x10658, offset: 0x10658, size: 0x8, addend: 0x0, symName: __ZNSt3__117__compressed_pairIPNS_11__tree_nodeINS_12__value_typeIiNS_4listIiNS_9allocatorIiEEEEEEPvEENS_22__tree_node_destructorINS4_IS9_EEEEEC2B7v160006IRSA_SD_EEOT_OT0_, symObjAddr: 0x22DC, symBinAddr: 0x100004A54, symSize: 0x48 }
  - { offsetInCU: 0x106B0, offset: 0x106B0, size: 0x8, addend: 0x0, symName: __ZNSt3__122__compressed_pair_elemIPNS_11__tree_nodeINS_12__value_typeIiNS_4listIiNS_9allocatorIiEEEEEEPvEELi0ELb0EEC2B7v160006IRSA_vEEOT_, symObjAddr: 0x2324, symBinAddr: 0x100004A9C, symSize: 0x24 }
  - { offsetInCU: 0x106F2, offset: 0x106F2, size: 0x8, addend: 0x0, symName: __ZNSt3__122__compressed_pair_elemINS_22__tree_node_destructorINS_9allocatorINS_11__tree_nodeINS_12__value_typeIiNS_4listIiNS2_IiEEEEEEPvEEEEEELi1ELb0EEC2B7v160006ISC_vEEOT_, symObjAddr: 0x2348, symBinAddr: 0x100004AC0, symSize: 0x24 }
  - { offsetInCU: 0x10734, offset: 0x10734, size: 0x8, addend: 0x0, symName: __ZNSt3__19allocatorINS_11__tree_nodeINS_12__value_typeIiNS_4listIiNS0_IiEEEEEEPvEEE9constructB7v160006INS_4pairIKiS5_EEJRKNS_21piecewise_construct_tENS_5tupleIJRSC_EEENSH_IJEEEEEEvPT_DpOT0_, symObjAddr: 0x236C, symBinAddr: 0x100004AE4, symSize: 0x44 }
  - { offsetInCU: 0x107B0, offset: 0x107B0, size: 0x8, addend: 0x0, symName: __ZNSt3__14pairIKiNS_4listIiNS_9allocatorIiEEEEEC1B7v160006IJRS1_EJEEENS_21piecewise_construct_tENS_5tupleIJDpT_EEENSA_IJDpT0_EEE, symObjAddr: 0x23B0, symBinAddr: 0x100004B28, symSize: 0x44 }
  - { offsetInCU: 0x10817, offset: 0x10817, size: 0x8, addend: 0x0, symName: __ZNSt3__14pairIKiNS_4listIiNS_9allocatorIiEEEEEC1B7v160006IJRS1_EJEJLm0EEJEEENS_21piecewise_construct_tERNS_5tupleIJDpT_EEERNSA_IJDpT0_EEENS_15__tuple_indicesIJXspT1_EEEENSJ_IJXspT2_EEEE, symObjAddr: 0x23F4, symBinAddr: 0x100004B6C, symSize: 0x3C }
  - { offsetInCU: 0x108A7, offset: 0x108A7, size: 0x8, addend: 0x0, symName: __ZNSt3__14pairIKiNS_4listIiNS_9allocatorIiEEEEEC2B7v160006IJRS1_EJEJLm0EEJEEENS_21piecewise_construct_tERNS_5tupleIJDpT_EEERNSA_IJDpT0_EEENS_15__tuple_indicesIJXspT1_EEEENSJ_IJXspT2_EEEE, symObjAddr: 0x2430, symBinAddr: 0x100004BA8, symSize: 0x4C }
  - { offsetInCU: 0x10937, offset: 0x10937, size: 0x8, addend: 0x0, symName: __ZNSt3__14listIiNS_9allocatorIiEEEC1B7v160006Ev, symObjAddr: 0x24A0, symBinAddr: 0x100004C18, symSize: 0x2C }
  - { offsetInCU: 0x10961, offset: 0x10961, size: 0x8, addend: 0x0, symName: __ZNSt3__112__tuple_leafILm0ERKiLb0EE3getB7v160006Ev, symObjAddr: 0x24CC, symBinAddr: 0x100004C44, symSize: 0x18 }
  - { offsetInCU: 0x10987, offset: 0x10987, size: 0x8, addend: 0x0, symName: __ZNSt3__14listIiNS_9allocatorIiEEEC2B7v160006Ev, symObjAddr: 0x24E4, symBinAddr: 0x100004C5C, symSize: 0x3C }
  - { offsetInCU: 0x109B1, offset: 0x109B1, size: 0x8, addend: 0x0, symName: __ZNSt3__110__list_impIiNS_9allocatorIiEEEC2Ev, symObjAddr: 0x2520, symBinAddr: 0x100004C98, symSize: 0x50 }
  - { offsetInCU: 0x109DD, offset: 0x109DD, size: 0x8, addend: 0x0, symName: __ZNSt3__116__list_node_baseIiPvEC1B7v160006Ev, symObjAddr: 0x2580, symBinAddr: 0x100004CF8, symSize: 0x2C }
  - { offsetInCU: 0x10A0C, offset: 0x10A0C, size: 0x8, addend: 0x0, symName: __ZNSt3__117__compressed_pairImNS_9allocatorINS_11__list_nodeIiPvEEEEEC1B7v160006IiNS_18__default_init_tagEEEOT_OT0_, symObjAddr: 0x25AC, symBinAddr: 0x100004D24, symSize: 0x3C }
  - { offsetInCU: 0x10A64, offset: 0x10A64, size: 0x8, addend: 0x0, symName: __ZNSt3__116__list_node_baseIiPvEC2B7v160006Ev, symObjAddr: 0x25E8, symBinAddr: 0x100004D60, symSize: 0x4C }
  - { offsetInCU: 0x10A8E, offset: 0x10A8E, size: 0x8, addend: 0x0, symName: __ZNSt3__117__compressed_pairImNS_9allocatorINS_11__list_nodeIiPvEEEEEC2B7v160006IiNS_18__default_init_tagEEEOT_OT0_, symObjAddr: 0x2634, symBinAddr: 0x100004DAC, symSize: 0x40 }
  - { offsetInCU: 0x10AE6, offset: 0x10AE6, size: 0x8, addend: 0x0, symName: __ZNSt3__122__compressed_pair_elemINS_9allocatorINS_11__list_nodeIiPvEEEELi1ELb1EEC2B7v160006ENS_18__default_init_tagE, symObjAddr: 0x2674, symBinAddr: 0x100004DEC, symSize: 0x2C }
  - { offsetInCU: 0x10B1B, offset: 0x10B1B, size: 0x8, addend: 0x0, symName: __ZNSt3__19allocatorINS_11__list_nodeIiPvEEEC2B7v160006Ev, symObjAddr: 0x26A0, symBinAddr: 0x100004E18, symSize: 0x2C }
  - { offsetInCU: 0x10B45, offset: 0x10B45, size: 0x8, addend: 0x0, symName: __ZNSt3__116__non_trivial_ifILb1ENS_9allocatorINS_11__list_nodeIiPvEEEEEC2B7v160006Ev, symObjAddr: 0x26CC, symBinAddr: 0x100004E44, symSize: 0x14 }
  - { offsetInCU: 0x10B6F, offset: 0x10B6F, size: 0x8, addend: 0x0, symName: __ZNKSt3__117__compressed_pairIPNS_11__tree_nodeINS_12__value_typeIiNS_4listIiNS_9allocatorIiEEEEEEPvEENS_22__tree_node_destructorINS4_IS9_EEEEE5firstB7v160006Ev, symObjAddr: 0x26E0, symBinAddr: 0x100004E58, symSize: 0x24 }
  - { offsetInCU: 0x10B95, offset: 0x10B95, size: 0x8, addend: 0x0, symName: __ZNKSt3__122__compressed_pair_elemIPNS_11__tree_nodeINS_12__value_typeIiNS_4listIiNS_9allocatorIiEEEEEEPvEELi0ELb0EE5__getB7v160006Ev, symObjAddr: 0x2704, symBinAddr: 0x100004E7C, symSize: 0x14 }
  - { offsetInCU: 0x10BBB, offset: 0x10BBB, size: 0x8, addend: 0x0, symName: __ZNSt3__117__compressed_pairIPNS_11__tree_nodeINS_12__value_typeIiNS_4listIiNS_9allocatorIiEEEEEEPvEENS_22__tree_node_destructorINS4_IS9_EEEEE6secondB7v160006Ev, symObjAddr: 0x2718, symBinAddr: 0x100004E90, symSize: 0x28 }
  - { offsetInCU: 0x10BE1, offset: 0x10BE1, size: 0x8, addend: 0x0, symName: __ZNSt3__122__compressed_pair_elemINS_22__tree_node_destructorINS_9allocatorINS_11__tree_nodeINS_12__value_typeIiNS_4listIiNS2_IiEEEEEEPvEEEEEELi1ELb0EE5__getB7v160006Ev, symObjAddr: 0x2740, symBinAddr: 0x100004EB8, symSize: 0x14 }
  - { offsetInCU: 0x10C07, offset: 0x10C07, size: 0x8, addend: 0x0, symName: __ZNSt3__16__treeINS_12__value_typeIiNS_4listIiNS_9allocatorIiEEEEEENS_19__map_value_compareIiS6_NS_4lessIiEELb1EEENS3_IS6_EEE4sizeB7v160006Ev, symObjAddr: 0x2A80, symBinAddr: 0x1000051F8, symSize: 0x28 }
  - { offsetInCU: 0x10C2D, offset: 0x10C2D, size: 0x8, addend: 0x0, symName: __ZNKSt3__116__tree_node_baseIPvE15__parent_unsafeB7v160006Ev, symObjAddr: 0x2AA8, symBinAddr: 0x100005220, symSize: 0x18 }
  - { offsetInCU: 0x10C53, offset: 0x10C53, size: 0x8, addend: 0x0, symName: __ZNSt3__116__tree_node_baseIPvE12__set_parentB7v160006EPS2_, symObjAddr: 0x2C90, symBinAddr: 0x100005408, symSize: 0x20 }
  - { offsetInCU: 0x10C88, offset: 0x10C88, size: 0x8, addend: 0x0, symName: __ZNSt3__117__compressed_pairImNS_19__map_value_compareIiNS_12__value_typeIiNS_4listIiNS_9allocatorIiEEEEEENS_4lessIiEELb1EEEE5firstB7v160006Ev, symObjAddr: 0x2CB0, symBinAddr: 0x100005428, symSize: 0x24 }
  - { offsetInCU: 0x10CAE, offset: 0x10CAE, size: 0x8, addend: 0x0, symName: __ZNSt3__117__compressed_pairIPNS_11__tree_nodeINS_12__value_typeIiNS_4listIiNS_9allocatorIiEEEEEEPvEENS_22__tree_node_destructorINS4_IS9_EEEEE5firstB7v160006Ev, symObjAddr: 0x2CD4, symBinAddr: 0x10000544C, symSize: 0x24 }
  - { offsetInCU: 0x10CD4, offset: 0x10CD4, size: 0x8, addend: 0x0, symName: __ZNSt3__122__compressed_pair_elemIPNS_11__tree_nodeINS_12__value_typeIiNS_4listIiNS_9allocatorIiEEEEEEPvEELi0ELb0EE5__getB7v160006Ev, symObjAddr: 0x2CF8, symBinAddr: 0x100005470, symSize: 0x14 }
  - { offsetInCU: 0x10CFA, offset: 0x10CFA, size: 0x8, addend: 0x0, symName: __ZNSt3__110unique_ptrINS_11__tree_nodeINS_12__value_typeIiNS_4listIiNS_9allocatorIiEEEEEEPvEENS_22__tree_node_destructorINS4_IS9_EEEEED2B7v160006Ev, symObjAddr: 0x2D0C, symBinAddr: 0x100005484, symSize: 0x30 }
  - { offsetInCU: 0x10D24, offset: 0x10D24, size: 0x8, addend: 0x0, symName: __ZNSt3__110unique_ptrINS_11__tree_nodeINS_12__value_typeIiNS_4listIiNS_9allocatorIiEEEEEEPvEENS_22__tree_node_destructorINS4_IS9_EEEEE5resetB7v160006EPS9_, symObjAddr: 0x2D3C, symBinAddr: 0x1000054B4, symSize: 0x78 }
  - { offsetInCU: 0x10D68, offset: 0x10D68, size: 0x8, addend: 0x0, symName: __ZNSt3__122__tree_node_destructorINS_9allocatorINS_11__tree_nodeINS_12__value_typeIiNS_4listIiNS1_IiEEEEEEPvEEEEEclB7v160006EPS9_, symObjAddr: 0x2DB4, symBinAddr: 0x10000552C, symSize: 0x94 }
  - { offsetInCU: 0x10D9D, offset: 0x10D9D, size: 0x8, addend: 0x0, symName: __ZNSt3__115__tree_iteratorINS_12__value_typeIiNS_4listIiNS_9allocatorIiEEEEEEPNS_11__tree_nodeIS6_PvEElEC2B7v160006ESA_, symObjAddr: 0x2E48, symBinAddr: 0x1000055C0, symSize: 0x20 }
  - { offsetInCU: 0x10DD6, offset: 0x10DD6, size: 0x8, addend: 0x0, symName: __ZNSt3__14pairINS_15__tree_iteratorINS_12__value_typeIiNS_4listIiNS_9allocatorIiEEEEEEPNS_11__tree_nodeIS7_PvEElEEbEC2B7v160006ISC_RbLS9_0EEEOT_OT0_, symObjAddr: 0x2E68, symBinAddr: 0x1000055E0, symSize: 0x38 }
  - { offsetInCU: 0x10E34, offset: 0x10E34, size: 0x8, addend: 0x0, symName: __ZNSt3__15tupleIJRKiEEC1B7v160006INS_4_AndELi0EEES2_, symObjAddr: 0x2EA0, symBinAddr: 0x100005618, symSize: 0x34 }
  - { offsetInCU: 0x10E7C, offset: 0x10E7C, size: 0x8, addend: 0x0, symName: __ZNSt3__15tupleIJRKiEEC2B7v160006INS_4_AndELi0EEES2_, symObjAddr: 0x2ED4, symBinAddr: 0x10000564C, symSize: 0x34 }
  - { offsetInCU: 0x10EC4, offset: 0x10EC4, size: 0x8, addend: 0x0, symName: __ZNSt3__112__tuple_implINS_15__tuple_indicesIJLm0EEEEJRKiEEC1B7v160006IJLm0EEJS4_EJEJEJS4_EEENS1_IJXspT_EEEENS_13__tuple_typesIJDpT0_EEENS1_IJXspT1_EEEENS8_IJDpT2_EEEDpOT3_, symObjAddr: 0x2F08, symBinAddr: 0x100005680, symSize: 0x34 }
  - { offsetInCU: 0x10F59, offset: 0x10F59, size: 0x8, addend: 0x0, symName: __ZNSt3__112__tuple_implINS_15__tuple_indicesIJLm0EEEEJRKiEEC2B7v160006IJLm0EEJS4_EJEJEJS4_EEENS1_IJXspT_EEEENS_13__tuple_typesIJDpT0_EEENS1_IJXspT1_EEEENS8_IJDpT2_EEEDpOT3_, symObjAddr: 0x2F3C, symBinAddr: 0x1000056B4, symSize: 0x34 }
  - { offsetInCU: 0x10FEE, offset: 0x10FEE, size: 0x8, addend: 0x0, symName: __ZNSt3__112__tuple_leafILm0ERKiLb0EEC2B7v160006IS2_vEEOT_, symObjAddr: 0x2F70, symBinAddr: 0x1000056E8, symSize: 0x20 }
  - { offsetInCU: 0x11031, offset: 0x11031, size: 0x8, addend: 0x0, symName: __ZNSt3__114pointer_traitsIPNS_12__value_typeIiNS_4listIiNS_9allocatorIiEEEEEEE10pointer_toB7v160006ERS6_, symObjAddr: 0x2F90, symBinAddr: 0x100005708, symSize: 0x14 }
  - { offsetInCU: 0x11054, offset: 0x11054, size: 0x8, addend: 0x0, symName: __ZNKSt3__115__tree_iteratorINS_12__value_typeIiNS_4listIiNS_9allocatorIiEEEEEEPNS_11__tree_nodeIS6_PvEElE8__get_npB7v160006Ev, symObjAddr: 0x2FA4, symBinAddr: 0x10000571C, symSize: 0x18 }
  - { offsetInCU: 0x1107A, offset: 0x1107A, size: 0x8, addend: 0x0, symName: __ZNSt3__14listIiNS_9allocatorIiEEE15__allocate_nodeB7v160006ERNS1_INS_11__list_nodeIiPvEEEE, symObjAddr: 0x2FBC, symBinAddr: 0x100005734, symSize: 0x70 }
  - { offsetInCU: 0x110BE, offset: 0x110BE, size: 0x8, addend: 0x0, symName: __ZNSt3__116allocator_traitsINS_9allocatorINS_11__list_nodeIiPvEEEEE9constructB7v160006IiJRKiEvEEvRS5_PT_DpOT0_, symObjAddr: 0x302C, symBinAddr: 0x1000057A4, symSize: 0x34 }
  - { offsetInCU: 0x11115, offset: 0x11115, size: 0x8, addend: 0x0, symName: __ZNKSt3__110unique_ptrINS_11__list_nodeIiPvEENS_22__allocator_destructorINS_9allocatorIS3_EEEEEptB7v160006Ev, symObjAddr: 0x3060, symBinAddr: 0x1000057D8, symSize: 0x28 }
  - { offsetInCU: 0x1113B, offset: 0x1113B, size: 0x8, addend: 0x0, symName: __ZNSt3__14listIiNS_9allocatorIiEEE20__link_nodes_at_backEPNS_16__list_node_baseIiPvEES7_, symObjAddr: 0x3088, symBinAddr: 0x100005800, symSize: 0x60 }
  - { offsetInCU: 0x11181, offset: 0x11181, size: 0x8, addend: 0x0, symName: __ZNKSt3__110unique_ptrINS_11__list_nodeIiPvEENS_22__allocator_destructorINS_9allocatorIS3_EEEEE3getB7v160006Ev, symObjAddr: 0x30E8, symBinAddr: 0x100005860, symSize: 0x28 }
  - { offsetInCU: 0x111A7, offset: 0x111A7, size: 0x8, addend: 0x0, symName: __ZNSt3__111__list_nodeIiPvE9__as_linkB7v160006Ev, symObjAddr: 0x3110, symBinAddr: 0x100005888, symSize: 0x24 }
  - { offsetInCU: 0x111CD, offset: 0x111CD, size: 0x8, addend: 0x0, symName: __ZNSt3__110unique_ptrINS_11__list_nodeIiPvEENS_22__allocator_destructorINS_9allocatorIS3_EEEEE7releaseB7v160006Ev, symObjAddr: 0x3134, symBinAddr: 0x1000058AC, symSize: 0x44 }
  - { offsetInCU: 0x11202, offset: 0x11202, size: 0x8, addend: 0x0, symName: __ZNSt3__110unique_ptrINS_11__list_nodeIiPvEENS_22__allocator_destructorINS_9allocatorIS3_EEEEED1B7v160006Ev, symObjAddr: 0x3178, symBinAddr: 0x1000058F0, symSize: 0x2C }
  - { offsetInCU: 0x1122C, offset: 0x1122C, size: 0x8, addend: 0x0, symName: __ZNSt3__116allocator_traitsINS_9allocatorINS_11__list_nodeIiPvEEEEE8allocateB7v160006ERS5_m, symObjAddr: 0x31A4, symBinAddr: 0x10000591C, symSize: 0x2C }
  - { offsetInCU: 0x1125F, offset: 0x1125F, size: 0x8, addend: 0x0, symName: __ZNSt3__122__allocator_destructorINS_9allocatorINS_11__list_nodeIiPvEEEEEC1B7v160006ERS5_m, symObjAddr: 0x31D0, symBinAddr: 0x100005948, symSize: 0x3C }
  - { offsetInCU: 0x112AA, offset: 0x112AA, size: 0x8, addend: 0x0, symName: __ZNSt3__110unique_ptrINS_11__list_nodeIiPvEENS_22__allocator_destructorINS_9allocatorIS3_EEEEEC1B7v160006ILb1EvEEPS3_NS_16__dependent_typeINS_27__unique_ptr_deleter_sfinaeIS7_EEXT_EE20__good_rval_ref_typeE, symObjAddr: 0x320C, symBinAddr: 0x100005984, symSize: 0x3C }
  - { offsetInCU: 0x112FB, offset: 0x112FB, size: 0x8, addend: 0x0, symName: __ZNSt3__19allocatorINS_11__list_nodeIiPvEEE8allocateB7v160006Em, symObjAddr: 0x3248, symBinAddr: 0x1000059C0, symSize: 0x5C }
  - { offsetInCU: 0x11339, offset: 0x11339, size: 0x8, addend: 0x0, symName: __ZNSt3__116allocator_traitsINS_9allocatorINS_11__list_nodeIiPvEEEEE8max_sizeB7v160006IS5_vEEmRKS5_, symObjAddr: 0x32A4, symBinAddr: 0x100005A1C, symSize: 0x24 }
  - { offsetInCU: 0x11367, offset: 0x11367, size: 0x8, addend: 0x0, symName: __ZNKSt3__19allocatorINS_11__list_nodeIiPvEEE8max_sizeB7v160006Ev, symObjAddr: 0x32C8, symBinAddr: 0x100005A40, symSize: 0x18 }
  - { offsetInCU: 0x1138D, offset: 0x1138D, size: 0x8, addend: 0x0, symName: __ZNSt3__122__allocator_destructorINS_9allocatorINS_11__list_nodeIiPvEEEEEC2B7v160006ERS5_m, symObjAddr: 0x32E0, symBinAddr: 0x100005A58, symSize: 0x2C }
  - { offsetInCU: 0x113D3, offset: 0x113D3, size: 0x8, addend: 0x0, symName: __ZNSt3__110unique_ptrINS_11__list_nodeIiPvEENS_22__allocator_destructorINS_9allocatorIS3_EEEEEC2B7v160006ILb1EvEEPS3_NS_16__dependent_typeINS_27__unique_ptr_deleter_sfinaeIS7_EEXT_EE20__good_rval_ref_typeE, symObjAddr: 0x330C, symBinAddr: 0x100005A84, symSize: 0x48 }
  - { offsetInCU: 0x11424, offset: 0x11424, size: 0x8, addend: 0x0, symName: __ZNSt3__117__compressed_pairIPNS_11__list_nodeIiPvEENS_22__allocator_destructorINS_9allocatorIS3_EEEEEC1B7v160006IRS4_S8_EEOT_OT0_, symObjAddr: 0x3354, symBinAddr: 0x100005ACC, symSize: 0x3C }
  - { offsetInCU: 0x1147C, offset: 0x1147C, size: 0x8, addend: 0x0, symName: __ZNSt3__117__compressed_pairIPNS_11__list_nodeIiPvEENS_22__allocator_destructorINS_9allocatorIS3_EEEEEC2B7v160006IRS4_S8_EEOT_OT0_, symObjAddr: 0x3390, symBinAddr: 0x100005B08, symSize: 0x48 }
  - { offsetInCU: 0x114D4, offset: 0x114D4, size: 0x8, addend: 0x0, symName: __ZNSt3__122__compressed_pair_elemIPNS_11__list_nodeIiPvEELi0ELb0EEC2B7v160006IRS4_vEEOT_, symObjAddr: 0x33D8, symBinAddr: 0x100005B50, symSize: 0x24 }
  - { offsetInCU: 0x11516, offset: 0x11516, size: 0x8, addend: 0x0, symName: __ZNSt3__122__compressed_pair_elemINS_22__allocator_destructorINS_9allocatorINS_11__list_nodeIiPvEEEEEELi1ELb0EEC2B7v160006IS7_vEEOT_, symObjAddr: 0x33FC, symBinAddr: 0x100005B74, symSize: 0x24 }
  - { offsetInCU: 0x11558, offset: 0x11558, size: 0x8, addend: 0x0, symName: __ZNSt3__19allocatorINS_11__list_nodeIiPvEEE9constructB7v160006IiJRKiEEEvPT_DpOT0_, symObjAddr: 0x3420, symBinAddr: 0x100005B98, symSize: 0x28 }
  - { offsetInCU: 0x115AE, offset: 0x115AE, size: 0x8, addend: 0x0, symName: __ZNKSt3__117__compressed_pairIPNS_11__list_nodeIiPvEENS_22__allocator_destructorINS_9allocatorIS3_EEEEE5firstB7v160006Ev, symObjAddr: 0x3448, symBinAddr: 0x100005BC0, symSize: 0x24 }
  - { offsetInCU: 0x115D4, offset: 0x115D4, size: 0x8, addend: 0x0, symName: __ZNKSt3__122__compressed_pair_elemIPNS_11__list_nodeIiPvEELi0ELb0EE5__getB7v160006Ev, symObjAddr: 0x346C, symBinAddr: 0x100005BE4, symSize: 0x14 }
  - { offsetInCU: 0x115FA, offset: 0x115FA, size: 0x8, addend: 0x0, symName: __ZNSt3__117__compressed_pairIPNS_11__list_nodeIiPvEENS_22__allocator_destructorINS_9allocatorIS3_EEEEE5firstB7v160006Ev, symObjAddr: 0x3480, symBinAddr: 0x100005BF8, symSize: 0x24 }
  - { offsetInCU: 0x11620, offset: 0x11620, size: 0x8, addend: 0x0, symName: __ZNSt3__122__compressed_pair_elemIPNS_11__list_nodeIiPvEELi0ELb0EE5__getB7v160006Ev, symObjAddr: 0x34A4, symBinAddr: 0x100005C1C, symSize: 0x14 }
  - { offsetInCU: 0x11646, offset: 0x11646, size: 0x8, addend: 0x0, symName: __ZNSt3__110unique_ptrINS_11__list_nodeIiPvEENS_22__allocator_destructorINS_9allocatorIS3_EEEEED2B7v160006Ev, symObjAddr: 0x34B8, symBinAddr: 0x100005C30, symSize: 0x30 }
  - { offsetInCU: 0x11670, offset: 0x11670, size: 0x8, addend: 0x0, symName: __ZNSt3__110unique_ptrINS_11__list_nodeIiPvEENS_22__allocator_destructorINS_9allocatorIS3_EEEEE5resetB7v160006EPS3_, symObjAddr: 0x34E8, symBinAddr: 0x100005C60, symSize: 0x78 }
  - { offsetInCU: 0x116B4, offset: 0x116B4, size: 0x8, addend: 0x0, symName: __ZNSt3__117__compressed_pairIPNS_11__list_nodeIiPvEENS_22__allocator_destructorINS_9allocatorIS3_EEEEE6secondB7v160006Ev, symObjAddr: 0x3560, symBinAddr: 0x100005CD8, symSize: 0x28 }
  - { offsetInCU: 0x116DA, offset: 0x116DA, size: 0x8, addend: 0x0, symName: __ZNSt3__122__allocator_destructorINS_9allocatorINS_11__list_nodeIiPvEEEEEclB7v160006EPS4_, symObjAddr: 0x3588, symBinAddr: 0x100005D00, symSize: 0x34 }
  - { offsetInCU: 0x1170E, offset: 0x1170E, size: 0x8, addend: 0x0, symName: __ZNSt3__122__compressed_pair_elemINS_22__allocator_destructorINS_9allocatorINS_11__list_nodeIiPvEEEEEELi1ELb0EE5__getB7v160006Ev, symObjAddr: 0x35BC, symBinAddr: 0x100005D34, symSize: 0x14 }
  - { offsetInCU: 0x11734, offset: 0x11734, size: 0x8, addend: 0x0, symName: __ZNSt3__16__treeINS_12__value_typeIibEENS_19__map_value_compareIiS2_NS_4lessIiEELb1EEENS_9allocatorIS2_EEE25__emplace_unique_key_argsIiJRKNS_21piecewise_construct_tENS_5tupleIJRKiEEENSE_IJEEEEEENS_4pairINS_15__tree_iteratorIS2_PNS_11__tree_nodeIS2_PvEElEEbEERKT_DpOT0_, symObjAddr: 0x35D0, symBinAddr: 0x100005D48, symSize: 0x100 }
  - { offsetInCU: 0x1180A, offset: 0x1180A, size: 0x8, addend: 0x0, symName: __ZNKSt3__115__tree_iteratorINS_12__value_typeIibEEPNS_11__tree_nodeIS2_PvEElEptB7v160006Ev, symObjAddr: 0x36D0, symBinAddr: 0x100005E48, symSize: 0x2C }
  - { offsetInCU: 0x11830, offset: 0x11830, size: 0x8, addend: 0x0, symName: __ZNSt3__16__treeINS_12__value_typeIibEENS_19__map_value_compareIiS2_NS_4lessIiEELb1EEENS_9allocatorIS2_EEE12__find_equalIiEERPNS_16__tree_node_baseIPvEERPNS_15__tree_end_nodeISE_EERKT_, symObjAddr: 0x36FC, symBinAddr: 0x100005E74, symSize: 0x184 }
  - { offsetInCU: 0x1189D, offset: 0x1189D, size: 0x8, addend: 0x0, symName: __ZNSt3__16__treeINS_12__value_typeIibEENS_19__map_value_compareIiS2_NS_4lessIiEELb1EEENS_9allocatorIS2_EEE16__construct_nodeIJRKNS_21piecewise_construct_tENS_5tupleIJRKiEEENSE_IJEEEEEENS_10unique_ptrINS_11__tree_nodeIS2_PvEENS_22__tree_node_destructorINS7_ISM_EEEEEEDpOT_, symObjAddr: 0x3880, symBinAddr: 0x100005FF8, symSize: 0x120 }
  - { offsetInCU: 0x11926, offset: 0x11926, size: 0x8, addend: 0x0, symName: __ZNSt3__16__treeINS_12__value_typeIibEENS_19__map_value_compareIiS2_NS_4lessIiEELb1EEENS_9allocatorIS2_EEE16__insert_node_atEPNS_15__tree_end_nodeIPNS_16__tree_node_baseIPvEEEERSE_SE_, symObjAddr: 0x39A0, symBinAddr: 0x100006118, symSize: 0xCC }
  - { offsetInCU: 0x1197B, offset: 0x1197B, size: 0x8, addend: 0x0, symName: __ZNKSt3__110unique_ptrINS_11__tree_nodeINS_12__value_typeIibEEPvEENS_22__tree_node_destructorINS_9allocatorIS5_EEEEE3getB7v160006Ev, symObjAddr: 0x3A6C, symBinAddr: 0x1000061E4, symSize: 0x28 }
  - { offsetInCU: 0x119A1, offset: 0x119A1, size: 0x8, addend: 0x0, symName: __ZNSt3__110unique_ptrINS_11__tree_nodeINS_12__value_typeIibEEPvEENS_22__tree_node_destructorINS_9allocatorIS5_EEEEE7releaseB7v160006Ev, symObjAddr: 0x3A94, symBinAddr: 0x10000620C, symSize: 0x44 }
  - { offsetInCU: 0x119D6, offset: 0x119D6, size: 0x8, addend: 0x0, symName: __ZNSt3__110unique_ptrINS_11__tree_nodeINS_12__value_typeIibEEPvEENS_22__tree_node_destructorINS_9allocatorIS5_EEEEED1B7v160006Ev, symObjAddr: 0x3AD8, symBinAddr: 0x100006250, symSize: 0x2C }
  - { offsetInCU: 0x11A00, offset: 0x11A00, size: 0x8, addend: 0x0, symName: __ZNSt3__115__tree_iteratorINS_12__value_typeIibEEPNS_11__tree_nodeIS2_PvEElEC1B7v160006ES6_, symObjAddr: 0x3B04, symBinAddr: 0x10000627C, symSize: 0x34 }
  - { offsetInCU: 0x11A3E, offset: 0x11A3E, size: 0x8, addend: 0x0, symName: __ZNSt3__14pairINS_15__tree_iteratorINS_12__value_typeIibEEPNS_11__tree_nodeIS3_PvEElEEbEC1B7v160006IS8_RbLS5_0EEEOT_OT0_, symObjAddr: 0x3B38, symBinAddr: 0x1000062B0, symSize: 0x3C }
  - { offsetInCU: 0x11A9C, offset: 0x11A9C, size: 0x8, addend: 0x0, symName: __ZNKSt3__16__treeINS_12__value_typeIibEENS_19__map_value_compareIiS2_NS_4lessIiEELb1EEENS_9allocatorIS2_EEE10__root_ptrEv, symObjAddr: 0x3B74, symBinAddr: 0x1000062EC, symSize: 0x24 }
  - { offsetInCU: 0x11AC2, offset: 0x11AC2, size: 0x8, addend: 0x0, symName: __ZNSt3__16__treeINS_12__value_typeIibEENS_19__map_value_compareIiS2_NS_4lessIiEELb1EEENS_9allocatorIS2_EEE10value_compB7v160006Ev, symObjAddr: 0x3B98, symBinAddr: 0x100006310, symSize: 0x28 }
  - { offsetInCU: 0x11AE8, offset: 0x11AE8, size: 0x8, addend: 0x0, symName: __ZNKSt3__119__map_value_compareIiNS_12__value_typeIibEENS_4lessIiEELb1EEclB7v160006ERKiRKS2_, symObjAddr: 0x3BC0, symBinAddr: 0x100006338, symSize: 0x50 }
  - { offsetInCU: 0x11B2C, offset: 0x11B2C, size: 0x8, addend: 0x0, symName: __ZNKSt3__119__map_value_compareIiNS_12__value_typeIibEENS_4lessIiEELb1EEclB7v160006ERKS2_RKi, symObjAddr: 0x3C10, symBinAddr: 0x100006388, symSize: 0x48 }
  - { offsetInCU: 0x11B70, offset: 0x11B70, size: 0x8, addend: 0x0, symName: __ZNSt3__117__compressed_pairImNS_19__map_value_compareIiNS_12__value_typeIibEENS_4lessIiEELb1EEEE6secondB7v160006Ev, symObjAddr: 0x3C58, symBinAddr: 0x1000063D0, symSize: 0x24 }
  - { offsetInCU: 0x11B96, offset: 0x11B96, size: 0x8, addend: 0x0, symName: __ZNSt3__122__compressed_pair_elemINS_19__map_value_compareIiNS_12__value_typeIibEENS_4lessIiEELb1EEELi1ELb1EE5__getB7v160006Ev, symObjAddr: 0x3C7C, symBinAddr: 0x1000063F4, symSize: 0x14 }
  - { offsetInCU: 0x11BBC, offset: 0x11BBC, size: 0x8, addend: 0x0, symName: __ZNKSt3__112__value_typeIibE11__get_valueB7v160006Ev, symObjAddr: 0x3C90, symBinAddr: 0x100006408, symSize: 0x14 }
  - { offsetInCU: 0x11BE2, offset: 0x11BE2, size: 0x8, addend: 0x0, symName: __ZNSt3__116allocator_traitsINS_9allocatorINS_11__tree_nodeINS_12__value_typeIibEEPvEEEEE8allocateB7v160006ERS7_m, symObjAddr: 0x3CA4, symBinAddr: 0x10000641C, symSize: 0x2C }
  - { offsetInCU: 0x11C15, offset: 0x11C15, size: 0x8, addend: 0x0, symName: __ZNSt3__122__tree_node_destructorINS_9allocatorINS_11__tree_nodeINS_12__value_typeIibEEPvEEEEEC1B7v160006ERS7_b, symObjAddr: 0x3CD0, symBinAddr: 0x100006448, symSize: 0x48 }
  - { offsetInCU: 0x11C62, offset: 0x11C62, size: 0x8, addend: 0x0, symName: __ZNSt3__110unique_ptrINS_11__tree_nodeINS_12__value_typeIibEEPvEENS_22__tree_node_destructorINS_9allocatorIS5_EEEEEC1B7v160006ILb1EvEEPS5_NS_16__dependent_typeINS_27__unique_ptr_deleter_sfinaeIS9_EEXT_EE20__good_rval_ref_typeE, symObjAddr: 0x3D18, symBinAddr: 0x100006490, symSize: 0x3C }
  - { offsetInCU: 0x11CB3, offset: 0x11CB3, size: 0x8, addend: 0x0, symName: __ZNSt3__116allocator_traitsINS_9allocatorINS_11__tree_nodeINS_12__value_typeIibEEPvEEEEE9constructB7v160006INS_4pairIKibEEJRKNS_21piecewise_construct_tENS_5tupleIJRSB_EEENSG_IJEEEEvEEvRS7_PT_DpOT0_, symObjAddr: 0x3D54, symBinAddr: 0x1000064CC, symSize: 0x44 }
  - { offsetInCU: 0x11D32, offset: 0x11D32, size: 0x8, addend: 0x0, symName: __ZNKSt3__110unique_ptrINS_11__tree_nodeINS_12__value_typeIibEEPvEENS_22__tree_node_destructorINS_9allocatorIS5_EEEEEptB7v160006Ev, symObjAddr: 0x3D98, symBinAddr: 0x100006510, symSize: 0x28 }
  - { offsetInCU: 0x11D58, offset: 0x11D58, size: 0x8, addend: 0x0, symName: __ZNSt3__110unique_ptrINS_11__tree_nodeINS_12__value_typeIibEEPvEENS_22__tree_node_destructorINS_9allocatorIS5_EEEEE11get_deleterB7v160006Ev, symObjAddr: 0x3DC0, symBinAddr: 0x100006538, symSize: 0x24 }
  - { offsetInCU: 0x11D7E, offset: 0x11D7E, size: 0x8, addend: 0x0, symName: __ZNSt3__19allocatorINS_11__tree_nodeINS_12__value_typeIibEEPvEEE8allocateB7v160006Em, symObjAddr: 0x3DE4, symBinAddr: 0x10000655C, symSize: 0x5C }
  - { offsetInCU: 0x11DBC, offset: 0x11DBC, size: 0x8, addend: 0x0, symName: __ZNSt3__116allocator_traitsINS_9allocatorINS_11__tree_nodeINS_12__value_typeIibEEPvEEEEE8max_sizeB7v160006IS7_vEEmRKS7_, symObjAddr: 0x3E40, symBinAddr: 0x1000065B8, symSize: 0x24 }
  - { offsetInCU: 0x11DEA, offset: 0x11DEA, size: 0x8, addend: 0x0, symName: __ZNKSt3__19allocatorINS_11__tree_nodeINS_12__value_typeIibEEPvEEE8max_sizeB7v160006Ev, symObjAddr: 0x3E64, symBinAddr: 0x1000065DC, symSize: 0x18 }
  - { offsetInCU: 0x11E10, offset: 0x11E10, size: 0x8, addend: 0x0, symName: __ZNSt3__122__tree_node_destructorINS_9allocatorINS_11__tree_nodeINS_12__value_typeIibEEPvEEEEEC2B7v160006ERS7_b, symObjAddr: 0x3E7C, symBinAddr: 0x1000065F4, symSize: 0x38 }
  - { offsetInCU: 0x11E58, offset: 0x11E58, size: 0x8, addend: 0x0, symName: __ZNSt3__110unique_ptrINS_11__tree_nodeINS_12__value_typeIibEEPvEENS_22__tree_node_destructorINS_9allocatorIS5_EEEEEC2B7v160006ILb1EvEEPS5_NS_16__dependent_typeINS_27__unique_ptr_deleter_sfinaeIS9_EEXT_EE20__good_rval_ref_typeE, symObjAddr: 0x3EB4, symBinAddr: 0x10000662C, symSize: 0x48 }
  - { offsetInCU: 0x11EA9, offset: 0x11EA9, size: 0x8, addend: 0x0, symName: __ZNSt3__117__compressed_pairIPNS_11__tree_nodeINS_12__value_typeIibEEPvEENS_22__tree_node_destructorINS_9allocatorIS5_EEEEEC1B7v160006IRS6_SA_EEOT_OT0_, symObjAddr: 0x3EFC, symBinAddr: 0x100006674, symSize: 0x3C }
  - { offsetInCU: 0x11F01, offset: 0x11F01, size: 0x8, addend: 0x0, symName: __ZNSt3__117__compressed_pairIPNS_11__tree_nodeINS_12__value_typeIibEEPvEENS_22__tree_node_destructorINS_9allocatorIS5_EEEEEC2B7v160006IRS6_SA_EEOT_OT0_, symObjAddr: 0x3F38, symBinAddr: 0x1000066B0, symSize: 0x48 }
  - { offsetInCU: 0x11F59, offset: 0x11F59, size: 0x8, addend: 0x0, symName: __ZNSt3__122__compressed_pair_elemIPNS_11__tree_nodeINS_12__value_typeIibEEPvEELi0ELb0EEC2B7v160006IRS6_vEEOT_, symObjAddr: 0x3F80, symBinAddr: 0x1000066F8, symSize: 0x24 }
  - { offsetInCU: 0x11F9B, offset: 0x11F9B, size: 0x8, addend: 0x0, symName: __ZNSt3__122__compressed_pair_elemINS_22__tree_node_destructorINS_9allocatorINS_11__tree_nodeINS_12__value_typeIibEEPvEEEEEELi1ELb0EEC2B7v160006IS9_vEEOT_, symObjAddr: 0x3FA4, symBinAddr: 0x10000671C, symSize: 0x24 }
  - { offsetInCU: 0x11FDD, offset: 0x11FDD, size: 0x8, addend: 0x0, symName: __ZNSt3__19allocatorINS_11__tree_nodeINS_12__value_typeIibEEPvEEE9constructB7v160006INS_4pairIKibEEJRKNS_21piecewise_construct_tENS_5tupleIJRS9_EEENSE_IJEEEEEEvPT_DpOT0_, symObjAddr: 0x3FC8, symBinAddr: 0x100006740, symSize: 0x44 }
  - { offsetInCU: 0x12059, offset: 0x12059, size: 0x8, addend: 0x0, symName: __ZNSt3__14pairIKibEC1B7v160006IJRS1_EJEEENS_21piecewise_construct_tENS_5tupleIJDpT_EEENS6_IJDpT0_EEE, symObjAddr: 0x400C, symBinAddr: 0x100006784, symSize: 0x44 }
  - { offsetInCU: 0x120C0, offset: 0x120C0, size: 0x8, addend: 0x0, symName: __ZNSt3__14pairIKibEC1B7v160006IJRS1_EJEJLm0EEJEEENS_21piecewise_construct_tERNS_5tupleIJDpT_EEERNS6_IJDpT0_EEENS_15__tuple_indicesIJXspT1_EEEENSF_IJXspT2_EEEE, symObjAddr: 0x4050, symBinAddr: 0x1000067C8, symSize: 0x3C }
  - { offsetInCU: 0x12150, offset: 0x12150, size: 0x8, addend: 0x0, symName: __ZNSt3__14pairIKibEC2B7v160006IJRS1_EJEJLm0EEJEEENS_21piecewise_construct_tERNS_5tupleIJDpT_EEERNS6_IJDpT0_EEENS_15__tuple_indicesIJXspT1_EEEENSF_IJXspT2_EEEE, symObjAddr: 0x408C, symBinAddr: 0x100006804, symSize: 0x48 }
  - { offsetInCU: 0x121E0, offset: 0x121E0, size: 0x8, addend: 0x0, symName: __ZNKSt3__117__compressed_pairIPNS_11__tree_nodeINS_12__value_typeIibEEPvEENS_22__tree_node_destructorINS_9allocatorIS5_EEEEE5firstB7v160006Ev, symObjAddr: 0x40D4, symBinAddr: 0x10000684C, symSize: 0x24 }
  - { offsetInCU: 0x12206, offset: 0x12206, size: 0x8, addend: 0x0, symName: __ZNKSt3__122__compressed_pair_elemIPNS_11__tree_nodeINS_12__value_typeIibEEPvEELi0ELb0EE5__getB7v160006Ev, symObjAddr: 0x40F8, symBinAddr: 0x100006870, symSize: 0x14 }
  - { offsetInCU: 0x1222C, offset: 0x1222C, size: 0x8, addend: 0x0, symName: __ZNSt3__117__compressed_pairIPNS_11__tree_nodeINS_12__value_typeIibEEPvEENS_22__tree_node_destructorINS_9allocatorIS5_EEEEE6secondB7v160006Ev, symObjAddr: 0x410C, symBinAddr: 0x100006884, symSize: 0x28 }
  - { offsetInCU: 0x12252, offset: 0x12252, size: 0x8, addend: 0x0, symName: __ZNSt3__122__compressed_pair_elemINS_22__tree_node_destructorINS_9allocatorINS_11__tree_nodeINS_12__value_typeIibEEPvEEEEEELi1ELb0EE5__getB7v160006Ev, symObjAddr: 0x4134, symBinAddr: 0x1000068AC, symSize: 0x14 }
  - { offsetInCU: 0x12278, offset: 0x12278, size: 0x8, addend: 0x0, symName: __ZNSt3__16__treeINS_12__value_typeIibEENS_19__map_value_compareIiS2_NS_4lessIiEELb1EEENS_9allocatorIS2_EEE4sizeB7v160006Ev, symObjAddr: 0x4148, symBinAddr: 0x1000068C0, symSize: 0x28 }
  - { offsetInCU: 0x1229E, offset: 0x1229E, size: 0x8, addend: 0x0, symName: __ZNSt3__117__compressed_pairImNS_19__map_value_compareIiNS_12__value_typeIibEENS_4lessIiEELb1EEEE5firstB7v160006Ev, symObjAddr: 0x4170, symBinAddr: 0x1000068E8, symSize: 0x24 }
  - { offsetInCU: 0x122C4, offset: 0x122C4, size: 0x8, addend: 0x0, symName: __ZNSt3__117__compressed_pairIPNS_11__tree_nodeINS_12__value_typeIibEEPvEENS_22__tree_node_destructorINS_9allocatorIS5_EEEEE5firstB7v160006Ev, symObjAddr: 0x4194, symBinAddr: 0x10000690C, symSize: 0x24 }
  - { offsetInCU: 0x122EA, offset: 0x122EA, size: 0x8, addend: 0x0, symName: __ZNSt3__122__compressed_pair_elemIPNS_11__tree_nodeINS_12__value_typeIibEEPvEELi0ELb0EE5__getB7v160006Ev, symObjAddr: 0x41B8, symBinAddr: 0x100006930, symSize: 0x14 }
  - { offsetInCU: 0x12310, offset: 0x12310, size: 0x8, addend: 0x0, symName: __ZNSt3__110unique_ptrINS_11__tree_nodeINS_12__value_typeIibEEPvEENS_22__tree_node_destructorINS_9allocatorIS5_EEEEED2B7v160006Ev, symObjAddr: 0x41CC, symBinAddr: 0x100006944, symSize: 0x30 }
  - { offsetInCU: 0x1233A, offset: 0x1233A, size: 0x8, addend: 0x0, symName: __ZNSt3__110unique_ptrINS_11__tree_nodeINS_12__value_typeIibEEPvEENS_22__tree_node_destructorINS_9allocatorIS5_EEEEE5resetB7v160006EPS5_, symObjAddr: 0x41FC, symBinAddr: 0x100006974, symSize: 0x78 }
  - { offsetInCU: 0x1237E, offset: 0x1237E, size: 0x8, addend: 0x0, symName: __ZNSt3__122__tree_node_destructorINS_9allocatorINS_11__tree_nodeINS_12__value_typeIibEEPvEEEEEclB7v160006EPS6_, symObjAddr: 0x4274, symBinAddr: 0x1000069EC, symSize: 0x94 }
  - { offsetInCU: 0x123B3, offset: 0x123B3, size: 0x8, addend: 0x0, symName: __ZNSt3__115__tree_iteratorINS_12__value_typeIibEEPNS_11__tree_nodeIS2_PvEElEC2B7v160006ES6_, symObjAddr: 0x4308, symBinAddr: 0x100006A80, symSize: 0x20 }
  - { offsetInCU: 0x123EC, offset: 0x123EC, size: 0x8, addend: 0x0, symName: __ZNSt3__14pairINS_15__tree_iteratorINS_12__value_typeIibEEPNS_11__tree_nodeIS3_PvEElEEbEC2B7v160006IS8_RbLS5_0EEEOT_OT0_, symObjAddr: 0x4328, symBinAddr: 0x100006AA0, symSize: 0x38 }
  - { offsetInCU: 0x1244A, offset: 0x1244A, size: 0x8, addend: 0x0, symName: __ZNSt3__114pointer_traitsIPNS_12__value_typeIibEEE10pointer_toB7v160006ERS2_, symObjAddr: 0x4360, symBinAddr: 0x100006AD8, symSize: 0x14 }
  - { offsetInCU: 0x1246D, offset: 0x1246D, size: 0x8, addend: 0x0, symName: __ZNKSt3__115__tree_iteratorINS_12__value_typeIibEEPNS_11__tree_nodeIS2_PvEElE8__get_npB7v160006Ev, symObjAddr: 0x4374, symBinAddr: 0x100006AEC, symSize: 0x18 }
  - { offsetInCU: 0x12493, offset: 0x12493, size: 0x8, addend: 0x0, symName: __ZNSt3__111char_traitsIcE6lengthEPKc, symObjAddr: 0x4578, symBinAddr: 0x100006CF0, symSize: 0x34 }
  - { offsetInCU: 0x124D4, offset: 0x124D4, size: 0x8, addend: 0x0, symName: __ZNKSt3__113basic_ostreamIcNS_11char_traitsIcEEE6sentrycvbB7v160006Ev, symObjAddr: 0x45AC, symBinAddr: 0x100006D24, symSize: 0x1C }
  - { offsetInCU: 0x124FA, offset: 0x124FA, size: 0x8, addend: 0x0, symName: __ZNSt3__119ostreambuf_iteratorIcNS_11char_traitsIcEEEC1B7v160006ERNS_13basic_ostreamIcS2_EE, symObjAddr: 0x4808, symBinAddr: 0x100006F80, symSize: 0x34 }
  - { offsetInCU: 0x12532, offset: 0x12532, size: 0x8, addend: 0x0, symName: __ZNKSt3__18ios_base5flagsB7v160006Ev, symObjAddr: 0x483C, symBinAddr: 0x100006FB4, symSize: 0x18 }
  - { offsetInCU: 0x1255A, offset: 0x1255A, size: 0x8, addend: 0x0, symName: __ZNKSt3__19basic_iosIcNS_11char_traitsIcEEE4fillB7v160006Ev, symObjAddr: 0x4854, symBinAddr: 0x100006FCC, symSize: 0x64 }
  - { offsetInCU: 0x12582, offset: 0x12582, size: 0x8, addend: 0x0, symName: __ZNKSt3__119ostreambuf_iteratorIcNS_11char_traitsIcEEE6failedB7v160006Ev, symObjAddr: 0x48B8, symBinAddr: 0x100007030, symSize: 0x24 }
  - { offsetInCU: 0x125A8, offset: 0x125A8, size: 0x8, addend: 0x0, symName: __ZNSt3__19basic_iosIcNS_11char_traitsIcEEE8setstateB7v160006Ej, symObjAddr: 0x48DC, symBinAddr: 0x100007054, symSize: 0x2C }
  - { offsetInCU: 0x125DD, offset: 0x125DD, size: 0x8, addend: 0x0, symName: __ZNKSt3__18ios_base5widthB7v160006Ev, symObjAddr: 0x4908, symBinAddr: 0x100007080, symSize: 0x18 }
  - { offsetInCU: 0x12605, offset: 0x12605, size: 0x8, addend: 0x0, symName: __ZNSt3__115basic_streambufIcNS_11char_traitsIcEEE5sputnB7v160006EPKcl, symObjAddr: 0x4920, symBinAddr: 0x100007098, symSize: 0x3C }
  - { offsetInCU: 0x12647, offset: 0x12647, size: 0x8, addend: 0x0, symName: __ZNSt3__112basic_stringIcNS_11char_traitsIcEENS_9allocatorIcEEEC1B7v160006Emc, symObjAddr: 0x495C, symBinAddr: 0x1000070D4, symSize: 0x3C }
  - { offsetInCU: 0x1268F, offset: 0x1268F, size: 0x8, addend: 0x0, symName: __ZNKSt3__112basic_stringIcNS_11char_traitsIcEENS_9allocatorIcEEE4dataB7v160006Ev, symObjAddr: 0x4998, symBinAddr: 0x100007110, symSize: 0x28 }
  - { offsetInCU: 0x126B5, offset: 0x126B5, size: 0x8, addend: 0x0, symName: __ZNSt3__18ios_base5widthB7v160006El, symObjAddr: 0x49C0, symBinAddr: 0x100007138, symSize: 0x2C }
  - { offsetInCU: 0x126FB, offset: 0x126FB, size: 0x8, addend: 0x0, symName: __ZNSt3__112basic_stringIcNS_11char_traitsIcEENS_9allocatorIcEEEC2B7v160006Emc, symObjAddr: 0x49EC, symBinAddr: 0x100007164, symSize: 0x54 }
  - { offsetInCU: 0x12743, offset: 0x12743, size: 0x8, addend: 0x0, symName: __ZNSt3__117__compressed_pairINS_12basic_stringIcNS_11char_traitsIcEENS_9allocatorIcEEE5__repES5_EC1B7v160006INS_18__default_init_tagESA_EEOT_OT0_, symObjAddr: 0x4A40, symBinAddr: 0x1000071B8, symSize: 0x3C }
  - { offsetInCU: 0x1279B, offset: 0x1279B, size: 0x8, addend: 0x0, symName: __ZNSt3__117__compressed_pairINS_12basic_stringIcNS_11char_traitsIcEENS_9allocatorIcEEE5__repES5_EC2B7v160006INS_18__default_init_tagESA_EEOT_OT0_, symObjAddr: 0x4A8C, symBinAddr: 0x100007204, symSize: 0x3C }
  - { offsetInCU: 0x127F3, offset: 0x127F3, size: 0x8, addend: 0x0, symName: __ZNSt3__122__compressed_pair_elemINS_12basic_stringIcNS_11char_traitsIcEENS_9allocatorIcEEE5__repELi0ELb0EEC2B7v160006ENS_18__default_init_tagE, symObjAddr: 0x4AC8, symBinAddr: 0x100007240, symSize: 0x14 }
  - { offsetInCU: 0x12828, offset: 0x12828, size: 0x8, addend: 0x0, symName: __ZNSt3__122__compressed_pair_elemINS_9allocatorIcEELi1ELb1EEC2B7v160006ENS_18__default_init_tagE, symObjAddr: 0x4ADC, symBinAddr: 0x100007254, symSize: 0x2C }
  - { offsetInCU: 0x1285D, offset: 0x1285D, size: 0x8, addend: 0x0, symName: __ZNSt3__19allocatorIcEC2B7v160006Ev, symObjAddr: 0x4B08, symBinAddr: 0x100007280, symSize: 0x2C }
  - { offsetInCU: 0x12887, offset: 0x12887, size: 0x8, addend: 0x0, symName: __ZNSt3__116__non_trivial_ifILb1ENS_9allocatorIcEEEC2B7v160006Ev, symObjAddr: 0x4B34, symBinAddr: 0x1000072AC, symSize: 0x14 }
  - { offsetInCU: 0x128B1, offset: 0x128B1, size: 0x8, addend: 0x0, symName: __ZNKSt3__112basic_stringIcNS_11char_traitsIcEENS_9allocatorIcEEE13__get_pointerB7v160006Ev, symObjAddr: 0x4B5C, symBinAddr: 0x1000072D4, symSize: 0x54 }
  - { offsetInCU: 0x128D7, offset: 0x128D7, size: 0x8, addend: 0x0, symName: __ZNKSt3__112basic_stringIcNS_11char_traitsIcEENS_9allocatorIcEEE9__is_longB7v160006Ev, symObjAddr: 0x4BB0, symBinAddr: 0x100007328, symSize: 0x38 }
  - { offsetInCU: 0x128FD, offset: 0x128FD, size: 0x8, addend: 0x0, symName: __ZNKSt3__112basic_stringIcNS_11char_traitsIcEENS_9allocatorIcEEE18__get_long_pointerB7v160006Ev, symObjAddr: 0x4BE8, symBinAddr: 0x100007360, symSize: 0x28 }
  - { offsetInCU: 0x12923, offset: 0x12923, size: 0x8, addend: 0x0, symName: __ZNKSt3__112basic_stringIcNS_11char_traitsIcEENS_9allocatorIcEEE19__get_short_pointerB7v160006Ev, symObjAddr: 0x4C10, symBinAddr: 0x100007388, symSize: 0x28 }
  - { offsetInCU: 0x12949, offset: 0x12949, size: 0x8, addend: 0x0, symName: __ZNKSt3__117__compressed_pairINS_12basic_stringIcNS_11char_traitsIcEENS_9allocatorIcEEE5__repES5_E5firstB7v160006Ev, symObjAddr: 0x4C38, symBinAddr: 0x1000073B0, symSize: 0x24 }
  - { offsetInCU: 0x1296F, offset: 0x1296F, size: 0x8, addend: 0x0, symName: __ZNKSt3__122__compressed_pair_elemINS_12basic_stringIcNS_11char_traitsIcEENS_9allocatorIcEEE5__repELi0ELb0EE5__getB7v160006Ev, symObjAddr: 0x4C5C, symBinAddr: 0x1000073D4, symSize: 0x14 }
  - { offsetInCU: 0x12995, offset: 0x12995, size: 0x8, addend: 0x0, symName: __ZNSt3__114pointer_traitsIPKcE10pointer_toB7v160006ERS1_, symObjAddr: 0x4C70, symBinAddr: 0x1000073E8, symSize: 0x14 }
  - { offsetInCU: 0x129B8, offset: 0x129B8, size: 0x8, addend: 0x0, symName: __ZNSt3__119ostreambuf_iteratorIcNS_11char_traitsIcEEEC2B7v160006ERNS_13basic_ostreamIcS2_EE, symObjAddr: 0x4C84, symBinAddr: 0x1000073FC, symSize: 0x54 }
  - { offsetInCU: 0x129F0, offset: 0x129F0, size: 0x8, addend: 0x0, symName: __ZNKSt3__19basic_iosIcNS_11char_traitsIcEEE5rdbufB7v160006Ev, symObjAddr: 0x4CD8, symBinAddr: 0x100007450, symSize: 0x24 }
  - { offsetInCU: 0x12A18, offset: 0x12A18, size: 0x8, addend: 0x0, symName: __ZNKSt3__18ios_base5rdbufB7v160006Ev, symObjAddr: 0x4CFC, symBinAddr: 0x100007474, symSize: 0x18 }
  - { offsetInCU: 0x12A3E, offset: 0x12A3E, size: 0x8, addend: 0x0, symName: __ZNSt3__111char_traitsIcE11eq_int_typeEii, symObjAddr: 0x4D14, symBinAddr: 0x10000748C, symSize: 0x28 }
  - { offsetInCU: 0x12A6F, offset: 0x12A6F, size: 0x8, addend: 0x0, symName: __ZNSt3__111char_traitsIcE3eofEv, symObjAddr: 0x4D3C, symBinAddr: 0x1000074B4, symSize: 0x8 }
  - { offsetInCU: 0x12A83, offset: 0x12A83, size: 0x8, addend: 0x0, symName: __ZNKSt3__19basic_iosIcNS_11char_traitsIcEEE5widenB7v160006Ec, symObjAddr: 0x4D44, symBinAddr: 0x1000074BC, symSize: 0x84 }
  - { offsetInCU: 0x12AF1, offset: 0x12AF1, size: 0x8, addend: 0x0, symName: __ZNKSt3__15ctypeIcE5widenB7v160006Ec, symObjAddr: 0x4DF4, symBinAddr: 0x10000756C, symSize: 0x38 }
  - { offsetInCU: 0x12B26, offset: 0x12B26, size: 0x8, addend: 0x0, symName: __ZNSt3__18ios_base8setstateB7v160006Ej, symObjAddr: 0x4E2C, symBinAddr: 0x1000075A4, symSize: 0x34 }
  - { offsetInCU: 0x12B5D, offset: 0x12B5D, size: 0x8, addend: 0x0, symName: __ZNSt3__110__list_impIiNS_9allocatorIiEEE5beginB7v160006Ev, symObjAddr: 0x4E84, symBinAddr: 0x1000075FC, symSize: 0x30 }
  - { offsetInCU: 0x12B83, offset: 0x12B83, size: 0x8, addend: 0x0, symName: __ZNSt3__115__list_iteratorIiPvEC1B7v160006EPNS_16__list_node_baseIiS1_EEPKv, symObjAddr: 0x4EB4, symBinAddr: 0x10000762C, symSize: 0x3C }
  - { offsetInCU: 0x12BCB, offset: 0x12BCB, size: 0x8, addend: 0x0, symName: __ZNSt3__115__list_iteratorIiPvEC2B7v160006EPNS_16__list_node_baseIiS1_EEPKv, symObjAddr: 0x4EF0, symBinAddr: 0x100007668, symSize: 0x24 }
  - { offsetInCU: 0x12C13, offset: 0x12C13, size: 0x8, addend: 0x0, symName: __ZNSt3__110__list_impIiNS_9allocatorIiEEE3endB7v160006Ev, symObjAddr: 0x4F14, symBinAddr: 0x10000768C, symSize: 0x3C }
...
